
bin/v1.node.elf:     file format elf32-littlearm


Disassembly of section .text:

00000150 <__aeabi_drsub>:
     150:	f081 4100 	eor.w	r1, r1, #2147483648	; 0x80000000
     154:	e002      	b.n	15c <__adddf3>
     156:	bf00      	nop

00000158 <__aeabi_dsub>:
     158:	f083 4300 	eor.w	r3, r3, #2147483648	; 0x80000000

0000015c <__adddf3>:
     15c:	b530      	push	{r4, r5, lr}
     15e:	ea4f 0441 	mov.w	r4, r1, lsl #1
     162:	ea4f 0543 	mov.w	r5, r3, lsl #1
     166:	ea94 0f05 	teq	r4, r5
     16a:	bf08      	it	eq
     16c:	ea90 0f02 	teqeq	r0, r2
     170:	bf1f      	itttt	ne
     172:	ea54 0c00 	orrsne.w	ip, r4, r0
     176:	ea55 0c02 	orrsne.w	ip, r5, r2
     17a:	ea7f 5c64 	mvnsne.w	ip, r4, asr #21
     17e:	ea7f 5c65 	mvnsne.w	ip, r5, asr #21
     182:	f000 80e2 	beq.w	34a <__adddf3+0x1ee>
     186:	ea4f 5454 	mov.w	r4, r4, lsr #21
     18a:	ebd4 5555 	rsbs	r5, r4, r5, lsr #21
     18e:	bfb8      	it	lt
     190:	426d      	neglt	r5, r5
     192:	dd0c      	ble.n	1ae <__adddf3+0x52>
     194:	442c      	add	r4, r5
     196:	ea80 0202 	eor.w	r2, r0, r2
     19a:	ea81 0303 	eor.w	r3, r1, r3
     19e:	ea82 0000 	eor.w	r0, r2, r0
     1a2:	ea83 0101 	eor.w	r1, r3, r1
     1a6:	ea80 0202 	eor.w	r2, r0, r2
     1aa:	ea81 0303 	eor.w	r3, r1, r3
     1ae:	2d36      	cmp	r5, #54	; 0x36
     1b0:	bf88      	it	hi
     1b2:	bd30      	pophi	{r4, r5, pc}
     1b4:	f011 4f00 	tst.w	r1, #2147483648	; 0x80000000
     1b8:	ea4f 3101 	mov.w	r1, r1, lsl #12
     1bc:	f44f 1c80 	mov.w	ip, #1048576	; 0x100000
     1c0:	ea4c 3111 	orr.w	r1, ip, r1, lsr #12
     1c4:	d002      	beq.n	1cc <__adddf3+0x70>
     1c6:	4240      	negs	r0, r0
     1c8:	eb61 0141 	sbc.w	r1, r1, r1, lsl #1
     1cc:	f013 4f00 	tst.w	r3, #2147483648	; 0x80000000
     1d0:	ea4f 3303 	mov.w	r3, r3, lsl #12
     1d4:	ea4c 3313 	orr.w	r3, ip, r3, lsr #12
     1d8:	d002      	beq.n	1e0 <__adddf3+0x84>
     1da:	4252      	negs	r2, r2
     1dc:	eb63 0343 	sbc.w	r3, r3, r3, lsl #1
     1e0:	ea94 0f05 	teq	r4, r5
     1e4:	f000 80a7 	beq.w	336 <__adddf3+0x1da>
     1e8:	f1a4 0401 	sub.w	r4, r4, #1
     1ec:	f1d5 0e20 	rsbs	lr, r5, #32
     1f0:	db0d      	blt.n	20e <__adddf3+0xb2>
     1f2:	fa02 fc0e 	lsl.w	ip, r2, lr
     1f6:	fa22 f205 	lsr.w	r2, r2, r5
     1fa:	1880      	adds	r0, r0, r2
     1fc:	f141 0100 	adc.w	r1, r1, #0
     200:	fa03 f20e 	lsl.w	r2, r3, lr
     204:	1880      	adds	r0, r0, r2
     206:	fa43 f305 	asr.w	r3, r3, r5
     20a:	4159      	adcs	r1, r3
     20c:	e00e      	b.n	22c <__adddf3+0xd0>
     20e:	f1a5 0520 	sub.w	r5, r5, #32
     212:	f10e 0e20 	add.w	lr, lr, #32
     216:	2a01      	cmp	r2, #1
     218:	fa03 fc0e 	lsl.w	ip, r3, lr
     21c:	bf28      	it	cs
     21e:	f04c 0c02 	orrcs.w	ip, ip, #2
     222:	fa43 f305 	asr.w	r3, r3, r5
     226:	18c0      	adds	r0, r0, r3
     228:	eb51 71e3 	adcs.w	r1, r1, r3, asr #31
     22c:	f001 4500 	and.w	r5, r1, #2147483648	; 0x80000000
     230:	d507      	bpl.n	242 <__adddf3+0xe6>
     232:	f04f 0e00 	mov.w	lr, #0
     236:	f1dc 0c00 	rsbs	ip, ip, #0
     23a:	eb7e 0000 	sbcs.w	r0, lr, r0
     23e:	eb6e 0101 	sbc.w	r1, lr, r1
     242:	f5b1 1f80 	cmp.w	r1, #1048576	; 0x100000
     246:	d31b      	bcc.n	280 <__adddf3+0x124>
     248:	f5b1 1f00 	cmp.w	r1, #2097152	; 0x200000
     24c:	d30c      	bcc.n	268 <__adddf3+0x10c>
     24e:	0849      	lsrs	r1, r1, #1
     250:	ea5f 0030 	movs.w	r0, r0, rrx
     254:	ea4f 0c3c 	mov.w	ip, ip, rrx
     258:	f104 0401 	add.w	r4, r4, #1
     25c:	ea4f 5244 	mov.w	r2, r4, lsl #21
     260:	f512 0f80 	cmn.w	r2, #4194304	; 0x400000
     264:	f080 809a 	bcs.w	39c <__adddf3+0x240>
     268:	f1bc 4f00 	cmp.w	ip, #2147483648	; 0x80000000
     26c:	bf08      	it	eq
     26e:	ea5f 0c50 	movseq.w	ip, r0, lsr #1
     272:	f150 0000 	adcs.w	r0, r0, #0
     276:	eb41 5104 	adc.w	r1, r1, r4, lsl #20
     27a:	ea41 0105 	orr.w	r1, r1, r5
     27e:	bd30      	pop	{r4, r5, pc}
     280:	ea5f 0c4c 	movs.w	ip, ip, lsl #1
     284:	4140      	adcs	r0, r0
     286:	eb41 0101 	adc.w	r1, r1, r1
     28a:	f411 1f80 	tst.w	r1, #1048576	; 0x100000
     28e:	f1a4 0401 	sub.w	r4, r4, #1
     292:	d1e9      	bne.n	268 <__adddf3+0x10c>
     294:	f091 0f00 	teq	r1, #0
     298:	bf04      	itt	eq
     29a:	4601      	moveq	r1, r0
     29c:	2000      	moveq	r0, #0
     29e:	fab1 f381 	clz	r3, r1
     2a2:	bf08      	it	eq
     2a4:	3320      	addeq	r3, #32
     2a6:	f1a3 030b 	sub.w	r3, r3, #11
     2aa:	f1b3 0220 	subs.w	r2, r3, #32
     2ae:	da0c      	bge.n	2ca <__adddf3+0x16e>
     2b0:	320c      	adds	r2, #12
     2b2:	dd08      	ble.n	2c6 <__adddf3+0x16a>
     2b4:	f102 0c14 	add.w	ip, r2, #20
     2b8:	f1c2 020c 	rsb	r2, r2, #12
     2bc:	fa01 f00c 	lsl.w	r0, r1, ip
     2c0:	fa21 f102 	lsr.w	r1, r1, r2
     2c4:	e00c      	b.n	2e0 <__adddf3+0x184>
     2c6:	f102 0214 	add.w	r2, r2, #20
     2ca:	bfd8      	it	le
     2cc:	f1c2 0c20 	rsble	ip, r2, #32
     2d0:	fa01 f102 	lsl.w	r1, r1, r2
     2d4:	fa20 fc0c 	lsr.w	ip, r0, ip
     2d8:	bfdc      	itt	le
     2da:	ea41 010c 	orrle.w	r1, r1, ip
     2de:	4090      	lslle	r0, r2
     2e0:	1ae4      	subs	r4, r4, r3
     2e2:	bfa2      	ittt	ge
     2e4:	eb01 5104 	addge.w	r1, r1, r4, lsl #20
     2e8:	4329      	orrge	r1, r5
     2ea:	bd30      	popge	{r4, r5, pc}
     2ec:	ea6f 0404 	mvn.w	r4, r4
     2f0:	3c1f      	subs	r4, #31
     2f2:	da1c      	bge.n	32e <__adddf3+0x1d2>
     2f4:	340c      	adds	r4, #12
     2f6:	dc0e      	bgt.n	316 <__adddf3+0x1ba>
     2f8:	f104 0414 	add.w	r4, r4, #20
     2fc:	f1c4 0220 	rsb	r2, r4, #32
     300:	fa20 f004 	lsr.w	r0, r0, r4
     304:	fa01 f302 	lsl.w	r3, r1, r2
     308:	ea40 0003 	orr.w	r0, r0, r3
     30c:	fa21 f304 	lsr.w	r3, r1, r4
     310:	ea45 0103 	orr.w	r1, r5, r3
     314:	bd30      	pop	{r4, r5, pc}
     316:	f1c4 040c 	rsb	r4, r4, #12
     31a:	f1c4 0220 	rsb	r2, r4, #32
     31e:	fa20 f002 	lsr.w	r0, r0, r2
     322:	fa01 f304 	lsl.w	r3, r1, r4
     326:	ea40 0003 	orr.w	r0, r0, r3
     32a:	4629      	mov	r1, r5
     32c:	bd30      	pop	{r4, r5, pc}
     32e:	fa21 f004 	lsr.w	r0, r1, r4
     332:	4629      	mov	r1, r5
     334:	bd30      	pop	{r4, r5, pc}
     336:	f094 0f00 	teq	r4, #0
     33a:	f483 1380 	eor.w	r3, r3, #1048576	; 0x100000
     33e:	bf06      	itte	eq
     340:	f481 1180 	eoreq.w	r1, r1, #1048576	; 0x100000
     344:	3401      	addeq	r4, #1
     346:	3d01      	subne	r5, #1
     348:	e74e      	b.n	1e8 <__adddf3+0x8c>
     34a:	ea7f 5c64 	mvns.w	ip, r4, asr #21
     34e:	bf18      	it	ne
     350:	ea7f 5c65 	mvnsne.w	ip, r5, asr #21
     354:	d029      	beq.n	3aa <__adddf3+0x24e>
     356:	ea94 0f05 	teq	r4, r5
     35a:	bf08      	it	eq
     35c:	ea90 0f02 	teqeq	r0, r2
     360:	d005      	beq.n	36e <__adddf3+0x212>
     362:	ea54 0c00 	orrs.w	ip, r4, r0
     366:	bf04      	itt	eq
     368:	4619      	moveq	r1, r3
     36a:	4610      	moveq	r0, r2
     36c:	bd30      	pop	{r4, r5, pc}
     36e:	ea91 0f03 	teq	r1, r3
     372:	bf1e      	ittt	ne
     374:	2100      	movne	r1, #0
     376:	2000      	movne	r0, #0
     378:	bd30      	popne	{r4, r5, pc}
     37a:	ea5f 5c54 	movs.w	ip, r4, lsr #21
     37e:	d105      	bne.n	38c <__adddf3+0x230>
     380:	0040      	lsls	r0, r0, #1
     382:	4149      	adcs	r1, r1
     384:	bf28      	it	cs
     386:	f041 4100 	orrcs.w	r1, r1, #2147483648	; 0x80000000
     38a:	bd30      	pop	{r4, r5, pc}
     38c:	f514 0480 	adds.w	r4, r4, #4194304	; 0x400000
     390:	bf3c      	itt	cc
     392:	f501 1180 	addcc.w	r1, r1, #1048576	; 0x100000
     396:	bd30      	popcc	{r4, r5, pc}
     398:	f001 4500 	and.w	r5, r1, #2147483648	; 0x80000000
     39c:	f045 41fe 	orr.w	r1, r5, #2130706432	; 0x7f000000
     3a0:	f441 0170 	orr.w	r1, r1, #15728640	; 0xf00000
     3a4:	f04f 0000 	mov.w	r0, #0
     3a8:	bd30      	pop	{r4, r5, pc}
     3aa:	ea7f 5c64 	mvns.w	ip, r4, asr #21
     3ae:	bf1a      	itte	ne
     3b0:	4619      	movne	r1, r3
     3b2:	4610      	movne	r0, r2
     3b4:	ea7f 5c65 	mvnseq.w	ip, r5, asr #21
     3b8:	bf1c      	itt	ne
     3ba:	460b      	movne	r3, r1
     3bc:	4602      	movne	r2, r0
     3be:	ea50 3401 	orrs.w	r4, r0, r1, lsl #12
     3c2:	bf06      	itte	eq
     3c4:	ea52 3503 	orrseq.w	r5, r2, r3, lsl #12
     3c8:	ea91 0f03 	teqeq	r1, r3
     3cc:	f441 2100 	orrne.w	r1, r1, #524288	; 0x80000
     3d0:	bd30      	pop	{r4, r5, pc}
     3d2:	bf00      	nop

000003d4 <__aeabi_ui2d>:
     3d4:	f090 0f00 	teq	r0, #0
     3d8:	bf04      	itt	eq
     3da:	2100      	moveq	r1, #0
     3dc:	4770      	bxeq	lr
     3de:	b530      	push	{r4, r5, lr}
     3e0:	f44f 6480 	mov.w	r4, #1024	; 0x400
     3e4:	f104 0432 	add.w	r4, r4, #50	; 0x32
     3e8:	f04f 0500 	mov.w	r5, #0
     3ec:	f04f 0100 	mov.w	r1, #0
     3f0:	e750      	b.n	294 <__adddf3+0x138>
     3f2:	bf00      	nop

000003f4 <__aeabi_i2d>:
     3f4:	f090 0f00 	teq	r0, #0
     3f8:	bf04      	itt	eq
     3fa:	2100      	moveq	r1, #0
     3fc:	4770      	bxeq	lr
     3fe:	b530      	push	{r4, r5, lr}
     400:	f44f 6480 	mov.w	r4, #1024	; 0x400
     404:	f104 0432 	add.w	r4, r4, #50	; 0x32
     408:	f010 4500 	ands.w	r5, r0, #2147483648	; 0x80000000
     40c:	bf48      	it	mi
     40e:	4240      	negmi	r0, r0
     410:	f04f 0100 	mov.w	r1, #0
     414:	e73e      	b.n	294 <__adddf3+0x138>
     416:	bf00      	nop

00000418 <__aeabi_f2d>:
     418:	0042      	lsls	r2, r0, #1
     41a:	ea4f 01e2 	mov.w	r1, r2, asr #3
     41e:	ea4f 0131 	mov.w	r1, r1, rrx
     422:	ea4f 7002 	mov.w	r0, r2, lsl #28
     426:	bf1f      	itttt	ne
     428:	f012 437f 	andsne.w	r3, r2, #4278190080	; 0xff000000
     42c:	f093 4f7f 	teqne	r3, #4278190080	; 0xff000000
     430:	f081 5160 	eorne.w	r1, r1, #939524096	; 0x38000000
     434:	4770      	bxne	lr
     436:	f032 427f 	bics.w	r2, r2, #4278190080	; 0xff000000
     43a:	bf08      	it	eq
     43c:	4770      	bxeq	lr
     43e:	f093 4f7f 	teq	r3, #4278190080	; 0xff000000
     442:	bf04      	itt	eq
     444:	f441 2100 	orreq.w	r1, r1, #524288	; 0x80000
     448:	4770      	bxeq	lr
     44a:	b530      	push	{r4, r5, lr}
     44c:	f44f 7460 	mov.w	r4, #896	; 0x380
     450:	f001 4500 	and.w	r5, r1, #2147483648	; 0x80000000
     454:	f021 4100 	bic.w	r1, r1, #2147483648	; 0x80000000
     458:	e71c      	b.n	294 <__adddf3+0x138>
     45a:	bf00      	nop

0000045c <__aeabi_ul2d>:
     45c:	ea50 0201 	orrs.w	r2, r0, r1
     460:	bf08      	it	eq
     462:	4770      	bxeq	lr
     464:	b530      	push	{r4, r5, lr}
     466:	f04f 0500 	mov.w	r5, #0
     46a:	e00a      	b.n	482 <__aeabi_l2d+0x16>

0000046c <__aeabi_l2d>:
     46c:	ea50 0201 	orrs.w	r2, r0, r1
     470:	bf08      	it	eq
     472:	4770      	bxeq	lr
     474:	b530      	push	{r4, r5, lr}
     476:	f011 4500 	ands.w	r5, r1, #2147483648	; 0x80000000
     47a:	d502      	bpl.n	482 <__aeabi_l2d+0x16>
     47c:	4240      	negs	r0, r0
     47e:	eb61 0141 	sbc.w	r1, r1, r1, lsl #1
     482:	f44f 6480 	mov.w	r4, #1024	; 0x400
     486:	f104 0432 	add.w	r4, r4, #50	; 0x32
     48a:	ea5f 5c91 	movs.w	ip, r1, lsr #22
     48e:	f43f aed8 	beq.w	242 <__adddf3+0xe6>
     492:	f04f 0203 	mov.w	r2, #3
     496:	ea5f 0cdc 	movs.w	ip, ip, lsr #3
     49a:	bf18      	it	ne
     49c:	3203      	addne	r2, #3
     49e:	ea5f 0cdc 	movs.w	ip, ip, lsr #3
     4a2:	bf18      	it	ne
     4a4:	3203      	addne	r2, #3
     4a6:	eb02 02dc 	add.w	r2, r2, ip, lsr #3
     4aa:	f1c2 0320 	rsb	r3, r2, #32
     4ae:	fa00 fc03 	lsl.w	ip, r0, r3
     4b2:	fa20 f002 	lsr.w	r0, r0, r2
     4b6:	fa01 fe03 	lsl.w	lr, r1, r3
     4ba:	ea40 000e 	orr.w	r0, r0, lr
     4be:	fa21 f102 	lsr.w	r1, r1, r2
     4c2:	4414      	add	r4, r2
     4c4:	e6bd      	b.n	242 <__adddf3+0xe6>
     4c6:	bf00      	nop

000004c8 <__aeabi_dmul>:
     4c8:	b570      	push	{r4, r5, r6, lr}
     4ca:	f04f 0cff 	mov.w	ip, #255	; 0xff
     4ce:	f44c 6ce0 	orr.w	ip, ip, #1792	; 0x700
     4d2:	ea1c 5411 	ands.w	r4, ip, r1, lsr #20
     4d6:	bf1d      	ittte	ne
     4d8:	ea1c 5513 	andsne.w	r5, ip, r3, lsr #20
     4dc:	ea94 0f0c 	teqne	r4, ip
     4e0:	ea95 0f0c 	teqne	r5, ip
     4e4:	f000 f8de 	bleq	6a4 <__aeabi_dmul+0x1dc>
     4e8:	442c      	add	r4, r5
     4ea:	ea81 0603 	eor.w	r6, r1, r3
     4ee:	ea21 514c 	bic.w	r1, r1, ip, lsl #21
     4f2:	ea23 534c 	bic.w	r3, r3, ip, lsl #21
     4f6:	ea50 3501 	orrs.w	r5, r0, r1, lsl #12
     4fa:	bf18      	it	ne
     4fc:	ea52 3503 	orrsne.w	r5, r2, r3, lsl #12
     500:	f441 1180 	orr.w	r1, r1, #1048576	; 0x100000
     504:	f443 1380 	orr.w	r3, r3, #1048576	; 0x100000
     508:	d038      	beq.n	57c <__aeabi_dmul+0xb4>
     50a:	fba0 ce02 	umull	ip, lr, r0, r2
     50e:	f04f 0500 	mov.w	r5, #0
     512:	fbe1 e502 	umlal	lr, r5, r1, r2
     516:	f006 4200 	and.w	r2, r6, #2147483648	; 0x80000000
     51a:	fbe0 e503 	umlal	lr, r5, r0, r3
     51e:	f04f 0600 	mov.w	r6, #0
     522:	fbe1 5603 	umlal	r5, r6, r1, r3
     526:	f09c 0f00 	teq	ip, #0
     52a:	bf18      	it	ne
     52c:	f04e 0e01 	orrne.w	lr, lr, #1
     530:	f1a4 04ff 	sub.w	r4, r4, #255	; 0xff
     534:	f5b6 7f00 	cmp.w	r6, #512	; 0x200
     538:	f564 7440 	sbc.w	r4, r4, #768	; 0x300
     53c:	d204      	bcs.n	548 <__aeabi_dmul+0x80>
     53e:	ea5f 0e4e 	movs.w	lr, lr, lsl #1
     542:	416d      	adcs	r5, r5
     544:	eb46 0606 	adc.w	r6, r6, r6
     548:	ea42 21c6 	orr.w	r1, r2, r6, lsl #11
     54c:	ea41 5155 	orr.w	r1, r1, r5, lsr #21
     550:	ea4f 20c5 	mov.w	r0, r5, lsl #11
     554:	ea40 505e 	orr.w	r0, r0, lr, lsr #21
     558:	ea4f 2ece 	mov.w	lr, lr, lsl #11
     55c:	f1b4 0cfd 	subs.w	ip, r4, #253	; 0xfd
     560:	bf88      	it	hi
     562:	f5bc 6fe0 	cmphi.w	ip, #1792	; 0x700
     566:	d81e      	bhi.n	5a6 <__aeabi_dmul+0xde>
     568:	f1be 4f00 	cmp.w	lr, #2147483648	; 0x80000000
     56c:	bf08      	it	eq
     56e:	ea5f 0e50 	movseq.w	lr, r0, lsr #1
     572:	f150 0000 	adcs.w	r0, r0, #0
     576:	eb41 5104 	adc.w	r1, r1, r4, lsl #20
     57a:	bd70      	pop	{r4, r5, r6, pc}
     57c:	f006 4600 	and.w	r6, r6, #2147483648	; 0x80000000
     580:	ea46 0101 	orr.w	r1, r6, r1
     584:	ea40 0002 	orr.w	r0, r0, r2
     588:	ea81 0103 	eor.w	r1, r1, r3
     58c:	ebb4 045c 	subs.w	r4, r4, ip, lsr #1
     590:	bfc2      	ittt	gt
     592:	ebd4 050c 	rsbsgt	r5, r4, ip
     596:	ea41 5104 	orrgt.w	r1, r1, r4, lsl #20
     59a:	bd70      	popgt	{r4, r5, r6, pc}
     59c:	f441 1180 	orr.w	r1, r1, #1048576	; 0x100000
     5a0:	f04f 0e00 	mov.w	lr, #0
     5a4:	3c01      	subs	r4, #1
     5a6:	f300 80ab 	bgt.w	700 <__aeabi_dmul+0x238>
     5aa:	f114 0f36 	cmn.w	r4, #54	; 0x36
     5ae:	bfde      	ittt	le
     5b0:	2000      	movle	r0, #0
     5b2:	f001 4100 	andle.w	r1, r1, #2147483648	; 0x80000000
     5b6:	bd70      	pople	{r4, r5, r6, pc}
     5b8:	f1c4 0400 	rsb	r4, r4, #0
     5bc:	3c20      	subs	r4, #32
     5be:	da35      	bge.n	62c <__aeabi_dmul+0x164>
     5c0:	340c      	adds	r4, #12
     5c2:	dc1b      	bgt.n	5fc <__aeabi_dmul+0x134>
     5c4:	f104 0414 	add.w	r4, r4, #20
     5c8:	f1c4 0520 	rsb	r5, r4, #32
     5cc:	fa00 f305 	lsl.w	r3, r0, r5
     5d0:	fa20 f004 	lsr.w	r0, r0, r4
     5d4:	fa01 f205 	lsl.w	r2, r1, r5
     5d8:	ea40 0002 	orr.w	r0, r0, r2
     5dc:	f001 4200 	and.w	r2, r1, #2147483648	; 0x80000000
     5e0:	f021 4100 	bic.w	r1, r1, #2147483648	; 0x80000000
     5e4:	eb10 70d3 	adds.w	r0, r0, r3, lsr #31
     5e8:	fa21 f604 	lsr.w	r6, r1, r4
     5ec:	eb42 0106 	adc.w	r1, r2, r6
     5f0:	ea5e 0e43 	orrs.w	lr, lr, r3, lsl #1
     5f4:	bf08      	it	eq
     5f6:	ea20 70d3 	biceq.w	r0, r0, r3, lsr #31
     5fa:	bd70      	pop	{r4, r5, r6, pc}
     5fc:	f1c4 040c 	rsb	r4, r4, #12
     600:	f1c4 0520 	rsb	r5, r4, #32
     604:	fa00 f304 	lsl.w	r3, r0, r4
     608:	fa20 f005 	lsr.w	r0, r0, r5
     60c:	fa01 f204 	lsl.w	r2, r1, r4
     610:	ea40 0002 	orr.w	r0, r0, r2
     614:	f001 4100 	and.w	r1, r1, #2147483648	; 0x80000000
     618:	eb10 70d3 	adds.w	r0, r0, r3, lsr #31
     61c:	f141 0100 	adc.w	r1, r1, #0
     620:	ea5e 0e43 	orrs.w	lr, lr, r3, lsl #1
     624:	bf08      	it	eq
     626:	ea20 70d3 	biceq.w	r0, r0, r3, lsr #31
     62a:	bd70      	pop	{r4, r5, r6, pc}
     62c:	f1c4 0520 	rsb	r5, r4, #32
     630:	fa00 f205 	lsl.w	r2, r0, r5
     634:	ea4e 0e02 	orr.w	lr, lr, r2
     638:	fa20 f304 	lsr.w	r3, r0, r4
     63c:	fa01 f205 	lsl.w	r2, r1, r5
     640:	ea43 0302 	orr.w	r3, r3, r2
     644:	fa21 f004 	lsr.w	r0, r1, r4
     648:	f001 4100 	and.w	r1, r1, #2147483648	; 0x80000000
     64c:	fa21 f204 	lsr.w	r2, r1, r4
     650:	ea20 0002 	bic.w	r0, r0, r2
     654:	eb00 70d3 	add.w	r0, r0, r3, lsr #31
     658:	ea5e 0e43 	orrs.w	lr, lr, r3, lsl #1
     65c:	bf08      	it	eq
     65e:	ea20 70d3 	biceq.w	r0, r0, r3, lsr #31
     662:	bd70      	pop	{r4, r5, r6, pc}
     664:	f094 0f00 	teq	r4, #0
     668:	d10f      	bne.n	68a <__aeabi_dmul+0x1c2>
     66a:	f001 4600 	and.w	r6, r1, #2147483648	; 0x80000000
     66e:	0040      	lsls	r0, r0, #1
     670:	eb41 0101 	adc.w	r1, r1, r1
     674:	f411 1f80 	tst.w	r1, #1048576	; 0x100000
     678:	bf08      	it	eq
     67a:	3c01      	subeq	r4, #1
     67c:	d0f7      	beq.n	66e <__aeabi_dmul+0x1a6>
     67e:	ea41 0106 	orr.w	r1, r1, r6
     682:	f095 0f00 	teq	r5, #0
     686:	bf18      	it	ne
     688:	4770      	bxne	lr
     68a:	f003 4600 	and.w	r6, r3, #2147483648	; 0x80000000
     68e:	0052      	lsls	r2, r2, #1
     690:	eb43 0303 	adc.w	r3, r3, r3
     694:	f413 1f80 	tst.w	r3, #1048576	; 0x100000
     698:	bf08      	it	eq
     69a:	3d01      	subeq	r5, #1
     69c:	d0f7      	beq.n	68e <__aeabi_dmul+0x1c6>
     69e:	ea43 0306 	orr.w	r3, r3, r6
     6a2:	4770      	bx	lr
     6a4:	ea94 0f0c 	teq	r4, ip
     6a8:	ea0c 5513 	and.w	r5, ip, r3, lsr #20
     6ac:	bf18      	it	ne
     6ae:	ea95 0f0c 	teqne	r5, ip
     6b2:	d00c      	beq.n	6ce <__aeabi_dmul+0x206>
     6b4:	ea50 0641 	orrs.w	r6, r0, r1, lsl #1
     6b8:	bf18      	it	ne
     6ba:	ea52 0643 	orrsne.w	r6, r2, r3, lsl #1
     6be:	d1d1      	bne.n	664 <__aeabi_dmul+0x19c>
     6c0:	ea81 0103 	eor.w	r1, r1, r3
     6c4:	f001 4100 	and.w	r1, r1, #2147483648	; 0x80000000
     6c8:	f04f 0000 	mov.w	r0, #0
     6cc:	bd70      	pop	{r4, r5, r6, pc}
     6ce:	ea50 0641 	orrs.w	r6, r0, r1, lsl #1
     6d2:	bf06      	itte	eq
     6d4:	4610      	moveq	r0, r2
     6d6:	4619      	moveq	r1, r3
     6d8:	ea52 0643 	orrsne.w	r6, r2, r3, lsl #1
     6dc:	d019      	beq.n	712 <__aeabi_dmul+0x24a>
     6de:	ea94 0f0c 	teq	r4, ip
     6e2:	d102      	bne.n	6ea <__aeabi_dmul+0x222>
     6e4:	ea50 3601 	orrs.w	r6, r0, r1, lsl #12
     6e8:	d113      	bne.n	712 <__aeabi_dmul+0x24a>
     6ea:	ea95 0f0c 	teq	r5, ip
     6ee:	d105      	bne.n	6fc <__aeabi_dmul+0x234>
     6f0:	ea52 3603 	orrs.w	r6, r2, r3, lsl #12
     6f4:	bf1c      	itt	ne
     6f6:	4610      	movne	r0, r2
     6f8:	4619      	movne	r1, r3
     6fa:	d10a      	bne.n	712 <__aeabi_dmul+0x24a>
     6fc:	ea81 0103 	eor.w	r1, r1, r3
     700:	f001 4100 	and.w	r1, r1, #2147483648	; 0x80000000
     704:	f041 41fe 	orr.w	r1, r1, #2130706432	; 0x7f000000
     708:	f441 0170 	orr.w	r1, r1, #15728640	; 0xf00000
     70c:	f04f 0000 	mov.w	r0, #0
     710:	bd70      	pop	{r4, r5, r6, pc}
     712:	f041 41fe 	orr.w	r1, r1, #2130706432	; 0x7f000000
     716:	f441 0178 	orr.w	r1, r1, #16252928	; 0xf80000
     71a:	bd70      	pop	{r4, r5, r6, pc}

0000071c <__aeabi_ddiv>:
     71c:	b570      	push	{r4, r5, r6, lr}
     71e:	f04f 0cff 	mov.w	ip, #255	; 0xff
     722:	f44c 6ce0 	orr.w	ip, ip, #1792	; 0x700
     726:	ea1c 5411 	ands.w	r4, ip, r1, lsr #20
     72a:	bf1d      	ittte	ne
     72c:	ea1c 5513 	andsne.w	r5, ip, r3, lsr #20
     730:	ea94 0f0c 	teqne	r4, ip
     734:	ea95 0f0c 	teqne	r5, ip
     738:	f000 f8a7 	bleq	88a <_min_heap_size+0x8a>
     73c:	eba4 0405 	sub.w	r4, r4, r5
     740:	ea81 0e03 	eor.w	lr, r1, r3
     744:	ea52 3503 	orrs.w	r5, r2, r3, lsl #12
     748:	ea4f 3101 	mov.w	r1, r1, lsl #12
     74c:	f000 8088 	beq.w	860 <_min_heap_size+0x60>
     750:	ea4f 3303 	mov.w	r3, r3, lsl #12
     754:	f04f 5580 	mov.w	r5, #268435456	; 0x10000000
     758:	ea45 1313 	orr.w	r3, r5, r3, lsr #4
     75c:	ea43 6312 	orr.w	r3, r3, r2, lsr #24
     760:	ea4f 2202 	mov.w	r2, r2, lsl #8
     764:	ea45 1511 	orr.w	r5, r5, r1, lsr #4
     768:	ea45 6510 	orr.w	r5, r5, r0, lsr #24
     76c:	ea4f 2600 	mov.w	r6, r0, lsl #8
     770:	f00e 4100 	and.w	r1, lr, #2147483648	; 0x80000000
     774:	429d      	cmp	r5, r3
     776:	bf08      	it	eq
     778:	4296      	cmpeq	r6, r2
     77a:	f144 04fd 	adc.w	r4, r4, #253	; 0xfd
     77e:	f504 7440 	add.w	r4, r4, #768	; 0x300
     782:	d202      	bcs.n	78a <__aeabi_ddiv+0x6e>
     784:	085b      	lsrs	r3, r3, #1
     786:	ea4f 0232 	mov.w	r2, r2, rrx
     78a:	1ab6      	subs	r6, r6, r2
     78c:	eb65 0503 	sbc.w	r5, r5, r3
     790:	085b      	lsrs	r3, r3, #1
     792:	ea4f 0232 	mov.w	r2, r2, rrx
     796:	f44f 1080 	mov.w	r0, #1048576	; 0x100000
     79a:	f44f 2c00 	mov.w	ip, #524288	; 0x80000
     79e:	ebb6 0e02 	subs.w	lr, r6, r2
     7a2:	eb75 0e03 	sbcs.w	lr, r5, r3
     7a6:	bf22      	ittt	cs
     7a8:	1ab6      	subcs	r6, r6, r2
     7aa:	4675      	movcs	r5, lr
     7ac:	ea40 000c 	orrcs.w	r0, r0, ip
     7b0:	085b      	lsrs	r3, r3, #1
     7b2:	ea4f 0232 	mov.w	r2, r2, rrx
     7b6:	ebb6 0e02 	subs.w	lr, r6, r2
     7ba:	eb75 0e03 	sbcs.w	lr, r5, r3
     7be:	bf22      	ittt	cs
     7c0:	1ab6      	subcs	r6, r6, r2
     7c2:	4675      	movcs	r5, lr
     7c4:	ea40 005c 	orrcs.w	r0, r0, ip, lsr #1
     7c8:	085b      	lsrs	r3, r3, #1
     7ca:	ea4f 0232 	mov.w	r2, r2, rrx
     7ce:	ebb6 0e02 	subs.w	lr, r6, r2
     7d2:	eb75 0e03 	sbcs.w	lr, r5, r3
     7d6:	bf22      	ittt	cs
     7d8:	1ab6      	subcs	r6, r6, r2
     7da:	4675      	movcs	r5, lr
     7dc:	ea40 009c 	orrcs.w	r0, r0, ip, lsr #2
     7e0:	085b      	lsrs	r3, r3, #1
     7e2:	ea4f 0232 	mov.w	r2, r2, rrx
     7e6:	ebb6 0e02 	subs.w	lr, r6, r2
     7ea:	eb75 0e03 	sbcs.w	lr, r5, r3
     7ee:	bf22      	ittt	cs
     7f0:	1ab6      	subcs	r6, r6, r2
     7f2:	4675      	movcs	r5, lr
     7f4:	ea40 00dc 	orrcs.w	r0, r0, ip, lsr #3
     7f8:	ea55 0e06 	orrs.w	lr, r5, r6
     7fc:	d018      	beq.n	830 <_min_heap_size+0x30>
     7fe:	ea4f 1505 	mov.w	r5, r5, lsl #4
     802:	ea45 7516 	orr.w	r5, r5, r6, lsr #28
     806:	ea4f 1606 	mov.w	r6, r6, lsl #4
     80a:	ea4f 03c3 	mov.w	r3, r3, lsl #3
     80e:	ea43 7352 	orr.w	r3, r3, r2, lsr #29
     812:	ea4f 02c2 	mov.w	r2, r2, lsl #3
     816:	ea5f 1c1c 	movs.w	ip, ip, lsr #4
     81a:	d1c0      	bne.n	79e <__aeabi_ddiv+0x82>
     81c:	f411 1f80 	tst.w	r1, #1048576	; 0x100000
     820:	d10b      	bne.n	83a <_min_heap_size+0x3a>
     822:	ea41 0100 	orr.w	r1, r1, r0
     826:	f04f 0000 	mov.w	r0, #0
     82a:	f04f 4c00 	mov.w	ip, #2147483648	; 0x80000000
     82e:	e7b6      	b.n	79e <__aeabi_ddiv+0x82>
     830:	f411 1f80 	tst.w	r1, #1048576	; 0x100000
     834:	bf04      	itt	eq
     836:	4301      	orreq	r1, r0
     838:	2000      	moveq	r0, #0
     83a:	f1b4 0cfd 	subs.w	ip, r4, #253	; 0xfd
     83e:	bf88      	it	hi
     840:	f5bc 6fe0 	cmphi.w	ip, #1792	; 0x700
     844:	f63f aeaf 	bhi.w	5a6 <__aeabi_dmul+0xde>
     848:	ebb5 0c03 	subs.w	ip, r5, r3
     84c:	bf04      	itt	eq
     84e:	ebb6 0c02 	subseq.w	ip, r6, r2
     852:	ea5f 0c50 	movseq.w	ip, r0, lsr #1
     856:	f150 0000 	adcs.w	r0, r0, #0
     85a:	eb41 5104 	adc.w	r1, r1, r4, lsl #20
     85e:	bd70      	pop	{r4, r5, r6, pc}
     860:	f00e 4e00 	and.w	lr, lr, #2147483648	; 0x80000000
     864:	ea4e 3111 	orr.w	r1, lr, r1, lsr #12
     868:	eb14 045c 	adds.w	r4, r4, ip, lsr #1
     86c:	bfc2      	ittt	gt
     86e:	ebd4 050c 	rsbsgt	r5, r4, ip
     872:	ea41 5104 	orrgt.w	r1, r1, r4, lsl #20
     876:	bd70      	popgt	{r4, r5, r6, pc}
     878:	f441 1180 	orr.w	r1, r1, #1048576	; 0x100000
     87c:	f04f 0e00 	mov.w	lr, #0
     880:	3c01      	subs	r4, #1
     882:	e690      	b.n	5a6 <__aeabi_dmul+0xde>
     884:	ea45 0e06 	orr.w	lr, r5, r6
     888:	e68d      	b.n	5a6 <__aeabi_dmul+0xde>
     88a:	ea0c 5513 	and.w	r5, ip, r3, lsr #20
     88e:	ea94 0f0c 	teq	r4, ip
     892:	bf08      	it	eq
     894:	ea95 0f0c 	teqeq	r5, ip
     898:	f43f af3b 	beq.w	712 <__aeabi_dmul+0x24a>
     89c:	ea94 0f0c 	teq	r4, ip
     8a0:	d10a      	bne.n	8b8 <_min_heap_size+0xb8>
     8a2:	ea50 3401 	orrs.w	r4, r0, r1, lsl #12
     8a6:	f47f af34 	bne.w	712 <__aeabi_dmul+0x24a>
     8aa:	ea95 0f0c 	teq	r5, ip
     8ae:	f47f af25 	bne.w	6fc <__aeabi_dmul+0x234>
     8b2:	4610      	mov	r0, r2
     8b4:	4619      	mov	r1, r3
     8b6:	e72c      	b.n	712 <__aeabi_dmul+0x24a>
     8b8:	ea95 0f0c 	teq	r5, ip
     8bc:	d106      	bne.n	8cc <_min_heap_size+0xcc>
     8be:	ea52 3503 	orrs.w	r5, r2, r3, lsl #12
     8c2:	f43f aefd 	beq.w	6c0 <__aeabi_dmul+0x1f8>
     8c6:	4610      	mov	r0, r2
     8c8:	4619      	mov	r1, r3
     8ca:	e722      	b.n	712 <__aeabi_dmul+0x24a>
     8cc:	ea50 0641 	orrs.w	r6, r0, r1, lsl #1
     8d0:	bf18      	it	ne
     8d2:	ea52 0643 	orrsne.w	r6, r2, r3, lsl #1
     8d6:	f47f aec5 	bne.w	664 <__aeabi_dmul+0x19c>
     8da:	ea50 0441 	orrs.w	r4, r0, r1, lsl #1
     8de:	f47f af0d 	bne.w	6fc <__aeabi_dmul+0x234>
     8e2:	ea52 0543 	orrs.w	r5, r2, r3, lsl #1
     8e6:	f47f aeeb 	bne.w	6c0 <__aeabi_dmul+0x1f8>
     8ea:	e712      	b.n	712 <__aeabi_dmul+0x24a>

000008ec <__gedf2>:
     8ec:	f04f 3cff 	mov.w	ip, #4294967295	; 0xffffffff
     8f0:	e006      	b.n	900 <__cmpdf2+0x4>
     8f2:	bf00      	nop

000008f4 <__ledf2>:
     8f4:	f04f 0c01 	mov.w	ip, #1
     8f8:	e002      	b.n	900 <__cmpdf2+0x4>
     8fa:	bf00      	nop

000008fc <__cmpdf2>:
     8fc:	f04f 0c01 	mov.w	ip, #1
     900:	f84d cd04 	str.w	ip, [sp, #-4]!
     904:	ea4f 0c41 	mov.w	ip, r1, lsl #1
     908:	ea7f 5c6c 	mvns.w	ip, ip, asr #21
     90c:	ea4f 0c43 	mov.w	ip, r3, lsl #1
     910:	bf18      	it	ne
     912:	ea7f 5c6c 	mvnsne.w	ip, ip, asr #21
     916:	d01b      	beq.n	950 <__cmpdf2+0x54>
     918:	b001      	add	sp, #4
     91a:	ea50 0c41 	orrs.w	ip, r0, r1, lsl #1
     91e:	bf0c      	ite	eq
     920:	ea52 0c43 	orrseq.w	ip, r2, r3, lsl #1
     924:	ea91 0f03 	teqne	r1, r3
     928:	bf02      	ittt	eq
     92a:	ea90 0f02 	teqeq	r0, r2
     92e:	2000      	moveq	r0, #0
     930:	4770      	bxeq	lr
     932:	f110 0f00 	cmn.w	r0, #0
     936:	ea91 0f03 	teq	r1, r3
     93a:	bf58      	it	pl
     93c:	4299      	cmppl	r1, r3
     93e:	bf08      	it	eq
     940:	4290      	cmpeq	r0, r2
     942:	bf2c      	ite	cs
     944:	17d8      	asrcs	r0, r3, #31
     946:	ea6f 70e3 	mvncc.w	r0, r3, asr #31
     94a:	f040 0001 	orr.w	r0, r0, #1
     94e:	4770      	bx	lr
     950:	ea4f 0c41 	mov.w	ip, r1, lsl #1
     954:	ea7f 5c6c 	mvns.w	ip, ip, asr #21
     958:	d102      	bne.n	960 <__cmpdf2+0x64>
     95a:	ea50 3c01 	orrs.w	ip, r0, r1, lsl #12
     95e:	d107      	bne.n	970 <__cmpdf2+0x74>
     960:	ea4f 0c43 	mov.w	ip, r3, lsl #1
     964:	ea7f 5c6c 	mvns.w	ip, ip, asr #21
     968:	d1d6      	bne.n	918 <__cmpdf2+0x1c>
     96a:	ea52 3c03 	orrs.w	ip, r2, r3, lsl #12
     96e:	d0d3      	beq.n	918 <__cmpdf2+0x1c>
     970:	f85d 0b04 	ldr.w	r0, [sp], #4
     974:	4770      	bx	lr
     976:	bf00      	nop

00000978 <__aeabi_cdrcmple>:
     978:	4684      	mov	ip, r0
     97a:	4610      	mov	r0, r2
     97c:	4662      	mov	r2, ip
     97e:	468c      	mov	ip, r1
     980:	4619      	mov	r1, r3
     982:	4663      	mov	r3, ip
     984:	e000      	b.n	988 <__aeabi_cdcmpeq>
     986:	bf00      	nop

00000988 <__aeabi_cdcmpeq>:
     988:	b501      	push	{r0, lr}
     98a:	f7ff ffb7 	bl	8fc <__cmpdf2>
     98e:	2800      	cmp	r0, #0
     990:	bf48      	it	mi
     992:	f110 0f00 	cmnmi.w	r0, #0
     996:	bd01      	pop	{r0, pc}

00000998 <__aeabi_dcmpeq>:
     998:	f84d ed08 	str.w	lr, [sp, #-8]!
     99c:	f7ff fff4 	bl	988 <__aeabi_cdcmpeq>
     9a0:	bf0c      	ite	eq
     9a2:	2001      	moveq	r0, #1
     9a4:	2000      	movne	r0, #0
     9a6:	f85d fb08 	ldr.w	pc, [sp], #8
     9aa:	bf00      	nop

000009ac <__aeabi_dcmplt>:
     9ac:	f84d ed08 	str.w	lr, [sp, #-8]!
     9b0:	f7ff ffea 	bl	988 <__aeabi_cdcmpeq>
     9b4:	bf34      	ite	cc
     9b6:	2001      	movcc	r0, #1
     9b8:	2000      	movcs	r0, #0
     9ba:	f85d fb08 	ldr.w	pc, [sp], #8
     9be:	bf00      	nop

000009c0 <__aeabi_dcmple>:
     9c0:	f84d ed08 	str.w	lr, [sp, #-8]!
     9c4:	f7ff ffe0 	bl	988 <__aeabi_cdcmpeq>
     9c8:	bf94      	ite	ls
     9ca:	2001      	movls	r0, #1
     9cc:	2000      	movhi	r0, #0
     9ce:	f85d fb08 	ldr.w	pc, [sp], #8
     9d2:	bf00      	nop

000009d4 <__aeabi_dcmpge>:
     9d4:	f84d ed08 	str.w	lr, [sp, #-8]!
     9d8:	f7ff ffce 	bl	978 <__aeabi_cdrcmple>
     9dc:	bf94      	ite	ls
     9de:	2001      	movls	r0, #1
     9e0:	2000      	movhi	r0, #0
     9e2:	f85d fb08 	ldr.w	pc, [sp], #8
     9e6:	bf00      	nop

000009e8 <__aeabi_dcmpgt>:
     9e8:	f84d ed08 	str.w	lr, [sp, #-8]!
     9ec:	f7ff ffc4 	bl	978 <__aeabi_cdrcmple>
     9f0:	bf34      	ite	cc
     9f2:	2001      	movcc	r0, #1
     9f4:	2000      	movcs	r0, #0
     9f6:	f85d fb08 	ldr.w	pc, [sp], #8
     9fa:	bf00      	nop

000009fc <__aeabi_d2iz>:
     9fc:	ea4f 0241 	mov.w	r2, r1, lsl #1
     a00:	f512 1200 	adds.w	r2, r2, #2097152	; 0x200000
     a04:	d215      	bcs.n	a32 <__aeabi_d2iz+0x36>
     a06:	d511      	bpl.n	a2c <__aeabi_d2iz+0x30>
     a08:	f46f 7378 	mvn.w	r3, #992	; 0x3e0
     a0c:	ebb3 5262 	subs.w	r2, r3, r2, asr #21
     a10:	d912      	bls.n	a38 <__aeabi_d2iz+0x3c>
     a12:	ea4f 23c1 	mov.w	r3, r1, lsl #11
     a16:	f043 4300 	orr.w	r3, r3, #2147483648	; 0x80000000
     a1a:	ea43 5350 	orr.w	r3, r3, r0, lsr #21
     a1e:	f011 4f00 	tst.w	r1, #2147483648	; 0x80000000
     a22:	fa23 f002 	lsr.w	r0, r3, r2
     a26:	bf18      	it	ne
     a28:	4240      	negne	r0, r0
     a2a:	4770      	bx	lr
     a2c:	f04f 0000 	mov.w	r0, #0
     a30:	4770      	bx	lr
     a32:	ea50 3001 	orrs.w	r0, r0, r1, lsl #12
     a36:	d105      	bne.n	a44 <__aeabi_d2iz+0x48>
     a38:	f011 4000 	ands.w	r0, r1, #2147483648	; 0x80000000
     a3c:	bf08      	it	eq
     a3e:	f06f 4000 	mvneq.w	r0, #2147483648	; 0x80000000
     a42:	4770      	bx	lr
     a44:	f04f 0000 	mov.w	r0, #0
     a48:	4770      	bx	lr
     a4a:	bf00      	nop

00000a4c <__aeabi_d2uiz>:
     a4c:	004a      	lsls	r2, r1, #1
     a4e:	d211      	bcs.n	a74 <__aeabi_d2uiz+0x28>
     a50:	f512 1200 	adds.w	r2, r2, #2097152	; 0x200000
     a54:	d211      	bcs.n	a7a <__aeabi_d2uiz+0x2e>
     a56:	d50d      	bpl.n	a74 <__aeabi_d2uiz+0x28>
     a58:	f46f 7378 	mvn.w	r3, #992	; 0x3e0
     a5c:	ebb3 5262 	subs.w	r2, r3, r2, asr #21
     a60:	d40e      	bmi.n	a80 <__aeabi_d2uiz+0x34>
     a62:	ea4f 23c1 	mov.w	r3, r1, lsl #11
     a66:	f043 4300 	orr.w	r3, r3, #2147483648	; 0x80000000
     a6a:	ea43 5350 	orr.w	r3, r3, r0, lsr #21
     a6e:	fa23 f002 	lsr.w	r0, r3, r2
     a72:	4770      	bx	lr
     a74:	f04f 0000 	mov.w	r0, #0
     a78:	4770      	bx	lr
     a7a:	ea50 3001 	orrs.w	r0, r0, r1, lsl #12
     a7e:	d102      	bne.n	a86 <__aeabi_d2uiz+0x3a>
     a80:	f04f 30ff 	mov.w	r0, #4294967295	; 0xffffffff
     a84:	4770      	bx	lr
     a86:	f04f 0000 	mov.w	r0, #0
     a8a:	4770      	bx	lr

00000a8c <__aeabi_uldivmod>:
     a8c:	b953      	cbnz	r3, aa4 <__aeabi_uldivmod+0x18>
     a8e:	b94a      	cbnz	r2, aa4 <__aeabi_uldivmod+0x18>
     a90:	2900      	cmp	r1, #0
     a92:	bf08      	it	eq
     a94:	2800      	cmpeq	r0, #0
     a96:	bf1c      	itt	ne
     a98:	f04f 31ff 	movne.w	r1, #4294967295	; 0xffffffff
     a9c:	f04f 30ff 	movne.w	r0, #4294967295	; 0xffffffff
     aa0:	f000 b972 	b.w	d88 <__aeabi_idiv0>
     aa4:	f1ad 0c08 	sub.w	ip, sp, #8
     aa8:	e96d ce04 	strd	ip, lr, [sp, #-16]!
     aac:	f000 f806 	bl	abc <__udivmoddi4>
     ab0:	f8dd e004 	ldr.w	lr, [sp, #4]
     ab4:	e9dd 2302 	ldrd	r2, r3, [sp, #8]
     ab8:	b004      	add	sp, #16
     aba:	4770      	bx	lr

00000abc <__udivmoddi4>:
     abc:	e92d 47f0 	stmdb	sp!, {r4, r5, r6, r7, r8, r9, sl, lr}
     ac0:	9e08      	ldr	r6, [sp, #32]
     ac2:	4604      	mov	r4, r0
     ac4:	4688      	mov	r8, r1
     ac6:	2b00      	cmp	r3, #0
     ac8:	d14b      	bne.n	b62 <__udivmoddi4+0xa6>
     aca:	428a      	cmp	r2, r1
     acc:	4615      	mov	r5, r2
     ace:	d967      	bls.n	ba0 <__udivmoddi4+0xe4>
     ad0:	fab2 f282 	clz	r2, r2
     ad4:	b14a      	cbz	r2, aea <__udivmoddi4+0x2e>
     ad6:	f1c2 0720 	rsb	r7, r2, #32
     ada:	fa01 f302 	lsl.w	r3, r1, r2
     ade:	fa20 f707 	lsr.w	r7, r0, r7
     ae2:	4095      	lsls	r5, r2
     ae4:	ea47 0803 	orr.w	r8, r7, r3
     ae8:	4094      	lsls	r4, r2
     aea:	ea4f 4e15 	mov.w	lr, r5, lsr #16
     aee:	0c23      	lsrs	r3, r4, #16
     af0:	fbb8 f7fe 	udiv	r7, r8, lr
     af4:	fa1f fc85 	uxth.w	ip, r5
     af8:	fb0e 8817 	mls	r8, lr, r7, r8
     afc:	ea43 4308 	orr.w	r3, r3, r8, lsl #16
     b00:	fb07 f10c 	mul.w	r1, r7, ip
     b04:	4299      	cmp	r1, r3
     b06:	d909      	bls.n	b1c <__udivmoddi4+0x60>
     b08:	18eb      	adds	r3, r5, r3
     b0a:	f107 30ff 	add.w	r0, r7, #4294967295	; 0xffffffff
     b0e:	f080 811b 	bcs.w	d48 <__udivmoddi4+0x28c>
     b12:	4299      	cmp	r1, r3
     b14:	f240 8118 	bls.w	d48 <__udivmoddi4+0x28c>
     b18:	3f02      	subs	r7, #2
     b1a:	442b      	add	r3, r5
     b1c:	1a5b      	subs	r3, r3, r1
     b1e:	b2a4      	uxth	r4, r4
     b20:	fbb3 f0fe 	udiv	r0, r3, lr
     b24:	fb0e 3310 	mls	r3, lr, r0, r3
     b28:	ea44 4403 	orr.w	r4, r4, r3, lsl #16
     b2c:	fb00 fc0c 	mul.w	ip, r0, ip
     b30:	45a4      	cmp	ip, r4
     b32:	d909      	bls.n	b48 <__udivmoddi4+0x8c>
     b34:	192c      	adds	r4, r5, r4
     b36:	f100 33ff 	add.w	r3, r0, #4294967295	; 0xffffffff
     b3a:	f080 8107 	bcs.w	d4c <__udivmoddi4+0x290>
     b3e:	45a4      	cmp	ip, r4
     b40:	f240 8104 	bls.w	d4c <__udivmoddi4+0x290>
     b44:	3802      	subs	r0, #2
     b46:	442c      	add	r4, r5
     b48:	ea40 4007 	orr.w	r0, r0, r7, lsl #16
     b4c:	eba4 040c 	sub.w	r4, r4, ip
     b50:	2700      	movs	r7, #0
     b52:	b11e      	cbz	r6, b5c <__udivmoddi4+0xa0>
     b54:	40d4      	lsrs	r4, r2
     b56:	2300      	movs	r3, #0
     b58:	e9c6 4300 	strd	r4, r3, [r6]
     b5c:	4639      	mov	r1, r7
     b5e:	e8bd 87f0 	ldmia.w	sp!, {r4, r5, r6, r7, r8, r9, sl, pc}
     b62:	428b      	cmp	r3, r1
     b64:	d909      	bls.n	b7a <__udivmoddi4+0xbe>
     b66:	2e00      	cmp	r6, #0
     b68:	f000 80eb 	beq.w	d42 <__udivmoddi4+0x286>
     b6c:	2700      	movs	r7, #0
     b6e:	e9c6 0100 	strd	r0, r1, [r6]
     b72:	4638      	mov	r0, r7
     b74:	4639      	mov	r1, r7
     b76:	e8bd 87f0 	ldmia.w	sp!, {r4, r5, r6, r7, r8, r9, sl, pc}
     b7a:	fab3 f783 	clz	r7, r3
     b7e:	2f00      	cmp	r7, #0
     b80:	d147      	bne.n	c12 <__udivmoddi4+0x156>
     b82:	428b      	cmp	r3, r1
     b84:	d302      	bcc.n	b8c <__udivmoddi4+0xd0>
     b86:	4282      	cmp	r2, r0
     b88:	f200 80fa 	bhi.w	d80 <__udivmoddi4+0x2c4>
     b8c:	1a84      	subs	r4, r0, r2
     b8e:	eb61 0303 	sbc.w	r3, r1, r3
     b92:	2001      	movs	r0, #1
     b94:	4698      	mov	r8, r3
     b96:	2e00      	cmp	r6, #0
     b98:	d0e0      	beq.n	b5c <__udivmoddi4+0xa0>
     b9a:	e9c6 4800 	strd	r4, r8, [r6]
     b9e:	e7dd      	b.n	b5c <__udivmoddi4+0xa0>
     ba0:	b902      	cbnz	r2, ba4 <__udivmoddi4+0xe8>
     ba2:	deff      	udf	#255	; 0xff
     ba4:	fab2 f282 	clz	r2, r2
     ba8:	2a00      	cmp	r2, #0
     baa:	f040 808f 	bne.w	ccc <__udivmoddi4+0x210>
     bae:	1b49      	subs	r1, r1, r5
     bb0:	ea4f 4e15 	mov.w	lr, r5, lsr #16
     bb4:	fa1f f885 	uxth.w	r8, r5
     bb8:	2701      	movs	r7, #1
     bba:	fbb1 fcfe 	udiv	ip, r1, lr
     bbe:	0c23      	lsrs	r3, r4, #16
     bc0:	fb0e 111c 	mls	r1, lr, ip, r1
     bc4:	ea43 4301 	orr.w	r3, r3, r1, lsl #16
     bc8:	fb08 f10c 	mul.w	r1, r8, ip
     bcc:	4299      	cmp	r1, r3
     bce:	d907      	bls.n	be0 <__udivmoddi4+0x124>
     bd0:	18eb      	adds	r3, r5, r3
     bd2:	f10c 30ff 	add.w	r0, ip, #4294967295	; 0xffffffff
     bd6:	d202      	bcs.n	bde <__udivmoddi4+0x122>
     bd8:	4299      	cmp	r1, r3
     bda:	f200 80cd 	bhi.w	d78 <__udivmoddi4+0x2bc>
     bde:	4684      	mov	ip, r0
     be0:	1a59      	subs	r1, r3, r1
     be2:	b2a3      	uxth	r3, r4
     be4:	fbb1 f0fe 	udiv	r0, r1, lr
     be8:	fb0e 1410 	mls	r4, lr, r0, r1
     bec:	ea43 4404 	orr.w	r4, r3, r4, lsl #16
     bf0:	fb08 f800 	mul.w	r8, r8, r0
     bf4:	45a0      	cmp	r8, r4
     bf6:	d907      	bls.n	c08 <__udivmoddi4+0x14c>
     bf8:	192c      	adds	r4, r5, r4
     bfa:	f100 33ff 	add.w	r3, r0, #4294967295	; 0xffffffff
     bfe:	d202      	bcs.n	c06 <__udivmoddi4+0x14a>
     c00:	45a0      	cmp	r8, r4
     c02:	f200 80b6 	bhi.w	d72 <__udivmoddi4+0x2b6>
     c06:	4618      	mov	r0, r3
     c08:	eba4 0408 	sub.w	r4, r4, r8
     c0c:	ea40 400c 	orr.w	r0, r0, ip, lsl #16
     c10:	e79f      	b.n	b52 <__udivmoddi4+0x96>
     c12:	f1c7 0c20 	rsb	ip, r7, #32
     c16:	40bb      	lsls	r3, r7
     c18:	fa22 fe0c 	lsr.w	lr, r2, ip
     c1c:	ea4e 0e03 	orr.w	lr, lr, r3
     c20:	fa01 f407 	lsl.w	r4, r1, r7
     c24:	fa20 f50c 	lsr.w	r5, r0, ip
     c28:	fa21 f30c 	lsr.w	r3, r1, ip
     c2c:	ea4f 481e 	mov.w	r8, lr, lsr #16
     c30:	4325      	orrs	r5, r4
     c32:	fbb3 f9f8 	udiv	r9, r3, r8
     c36:	0c2c      	lsrs	r4, r5, #16
     c38:	fb08 3319 	mls	r3, r8, r9, r3
     c3c:	fa1f fa8e 	uxth.w	sl, lr
     c40:	ea44 4303 	orr.w	r3, r4, r3, lsl #16
     c44:	fb09 f40a 	mul.w	r4, r9, sl
     c48:	429c      	cmp	r4, r3
     c4a:	fa02 f207 	lsl.w	r2, r2, r7
     c4e:	fa00 f107 	lsl.w	r1, r0, r7
     c52:	d90b      	bls.n	c6c <__udivmoddi4+0x1b0>
     c54:	eb1e 0303 	adds.w	r3, lr, r3
     c58:	f109 30ff 	add.w	r0, r9, #4294967295	; 0xffffffff
     c5c:	f080 8087 	bcs.w	d6e <__udivmoddi4+0x2b2>
     c60:	429c      	cmp	r4, r3
     c62:	f240 8084 	bls.w	d6e <__udivmoddi4+0x2b2>
     c66:	f1a9 0902 	sub.w	r9, r9, #2
     c6a:	4473      	add	r3, lr
     c6c:	1b1b      	subs	r3, r3, r4
     c6e:	b2ad      	uxth	r5, r5
     c70:	fbb3 f0f8 	udiv	r0, r3, r8
     c74:	fb08 3310 	mls	r3, r8, r0, r3
     c78:	ea45 4403 	orr.w	r4, r5, r3, lsl #16
     c7c:	fb00 fa0a 	mul.w	sl, r0, sl
     c80:	45a2      	cmp	sl, r4
     c82:	d908      	bls.n	c96 <__udivmoddi4+0x1da>
     c84:	eb1e 0404 	adds.w	r4, lr, r4
     c88:	f100 33ff 	add.w	r3, r0, #4294967295	; 0xffffffff
     c8c:	d26b      	bcs.n	d66 <__udivmoddi4+0x2aa>
     c8e:	45a2      	cmp	sl, r4
     c90:	d969      	bls.n	d66 <__udivmoddi4+0x2aa>
     c92:	3802      	subs	r0, #2
     c94:	4474      	add	r4, lr
     c96:	ea40 4009 	orr.w	r0, r0, r9, lsl #16
     c9a:	fba0 8902 	umull	r8, r9, r0, r2
     c9e:	eba4 040a 	sub.w	r4, r4, sl
     ca2:	454c      	cmp	r4, r9
     ca4:	46c2      	mov	sl, r8
     ca6:	464b      	mov	r3, r9
     ca8:	d354      	bcc.n	d54 <__udivmoddi4+0x298>
     caa:	d051      	beq.n	d50 <__udivmoddi4+0x294>
     cac:	2e00      	cmp	r6, #0
     cae:	d069      	beq.n	d84 <__udivmoddi4+0x2c8>
     cb0:	ebb1 050a 	subs.w	r5, r1, sl
     cb4:	eb64 0403 	sbc.w	r4, r4, r3
     cb8:	fa04 fc0c 	lsl.w	ip, r4, ip
     cbc:	40fd      	lsrs	r5, r7
     cbe:	40fc      	lsrs	r4, r7
     cc0:	ea4c 0505 	orr.w	r5, ip, r5
     cc4:	e9c6 5400 	strd	r5, r4, [r6]
     cc8:	2700      	movs	r7, #0
     cca:	e747      	b.n	b5c <__udivmoddi4+0xa0>
     ccc:	f1c2 0320 	rsb	r3, r2, #32
     cd0:	fa20 f703 	lsr.w	r7, r0, r3
     cd4:	4095      	lsls	r5, r2
     cd6:	fa01 f002 	lsl.w	r0, r1, r2
     cda:	fa21 f303 	lsr.w	r3, r1, r3
     cde:	ea4f 4e15 	mov.w	lr, r5, lsr #16
     ce2:	4338      	orrs	r0, r7
     ce4:	0c01      	lsrs	r1, r0, #16
     ce6:	fbb3 f7fe 	udiv	r7, r3, lr
     cea:	fa1f f885 	uxth.w	r8, r5
     cee:	fb0e 3317 	mls	r3, lr, r7, r3
     cf2:	ea41 4103 	orr.w	r1, r1, r3, lsl #16
     cf6:	fb07 f308 	mul.w	r3, r7, r8
     cfa:	428b      	cmp	r3, r1
     cfc:	fa04 f402 	lsl.w	r4, r4, r2
     d00:	d907      	bls.n	d12 <__udivmoddi4+0x256>
     d02:	1869      	adds	r1, r5, r1
     d04:	f107 3cff 	add.w	ip, r7, #4294967295	; 0xffffffff
     d08:	d22f      	bcs.n	d6a <__udivmoddi4+0x2ae>
     d0a:	428b      	cmp	r3, r1
     d0c:	d92d      	bls.n	d6a <__udivmoddi4+0x2ae>
     d0e:	3f02      	subs	r7, #2
     d10:	4429      	add	r1, r5
     d12:	1acb      	subs	r3, r1, r3
     d14:	b281      	uxth	r1, r0
     d16:	fbb3 f0fe 	udiv	r0, r3, lr
     d1a:	fb0e 3310 	mls	r3, lr, r0, r3
     d1e:	ea41 4103 	orr.w	r1, r1, r3, lsl #16
     d22:	fb00 f308 	mul.w	r3, r0, r8
     d26:	428b      	cmp	r3, r1
     d28:	d907      	bls.n	d3a <__udivmoddi4+0x27e>
     d2a:	1869      	adds	r1, r5, r1
     d2c:	f100 3cff 	add.w	ip, r0, #4294967295	; 0xffffffff
     d30:	d217      	bcs.n	d62 <__udivmoddi4+0x2a6>
     d32:	428b      	cmp	r3, r1
     d34:	d915      	bls.n	d62 <__udivmoddi4+0x2a6>
     d36:	3802      	subs	r0, #2
     d38:	4429      	add	r1, r5
     d3a:	1ac9      	subs	r1, r1, r3
     d3c:	ea40 4707 	orr.w	r7, r0, r7, lsl #16
     d40:	e73b      	b.n	bba <__udivmoddi4+0xfe>
     d42:	4637      	mov	r7, r6
     d44:	4630      	mov	r0, r6
     d46:	e709      	b.n	b5c <__udivmoddi4+0xa0>
     d48:	4607      	mov	r7, r0
     d4a:	e6e7      	b.n	b1c <__udivmoddi4+0x60>
     d4c:	4618      	mov	r0, r3
     d4e:	e6fb      	b.n	b48 <__udivmoddi4+0x8c>
     d50:	4541      	cmp	r1, r8
     d52:	d2ab      	bcs.n	cac <__udivmoddi4+0x1f0>
     d54:	ebb8 0a02 	subs.w	sl, r8, r2
     d58:	eb69 020e 	sbc.w	r2, r9, lr
     d5c:	3801      	subs	r0, #1
     d5e:	4613      	mov	r3, r2
     d60:	e7a4      	b.n	cac <__udivmoddi4+0x1f0>
     d62:	4660      	mov	r0, ip
     d64:	e7e9      	b.n	d3a <__udivmoddi4+0x27e>
     d66:	4618      	mov	r0, r3
     d68:	e795      	b.n	c96 <__udivmoddi4+0x1da>
     d6a:	4667      	mov	r7, ip
     d6c:	e7d1      	b.n	d12 <__udivmoddi4+0x256>
     d6e:	4681      	mov	r9, r0
     d70:	e77c      	b.n	c6c <__udivmoddi4+0x1b0>
     d72:	3802      	subs	r0, #2
     d74:	442c      	add	r4, r5
     d76:	e747      	b.n	c08 <__udivmoddi4+0x14c>
     d78:	f1ac 0c02 	sub.w	ip, ip, #2
     d7c:	442b      	add	r3, r5
     d7e:	e72f      	b.n	be0 <__udivmoddi4+0x124>
     d80:	4638      	mov	r0, r7
     d82:	e708      	b.n	b96 <__udivmoddi4+0xda>
     d84:	4637      	mov	r7, r6
     d86:	e6e9      	b.n	b5c <__udivmoddi4+0xa0>

00000d88 <__aeabi_idiv0>:
     d88:	4770      	bx	lr
     d8a:	bf00      	nop

00000d8c <_hardfault_isr>:
     d8c:	f01e 0f04 	tst.w	lr, #4
     d90:	bf0c      	ite	eq
     d92:	f3ef 8008 	mrseq	r0, MSP
     d96:	f3ef 8009 	mrsne	r0, PSP
     d9a:	6981      	ldr	r1, [r0, #24]
     d9c:	4a00      	ldr	r2, [pc, #0]	; (da0 <trace_stack_addr>)
     d9e:	4710      	bx	r2

00000da0 <trace_stack_addr>:
     da0:	00000da5 	.word	0x00000da5

00000da4 <trace_stack>:
     da4:	b500      	push	{lr}
     da6:	b089      	sub	sp, #36	; 0x24
     da8:	6803      	ldr	r3, [r0, #0]
     daa:	9300      	str	r3, [sp, #0]
     dac:	6843      	ldr	r3, [r0, #4]
     dae:	9301      	str	r3, [sp, #4]
     db0:	6883      	ldr	r3, [r0, #8]
     db2:	9302      	str	r3, [sp, #8]
     db4:	68c3      	ldr	r3, [r0, #12]
     db6:	9303      	str	r3, [sp, #12]
     db8:	6903      	ldr	r3, [r0, #16]
     dba:	9304      	str	r3, [sp, #16]
     dbc:	6943      	ldr	r3, [r0, #20]
     dbe:	9305      	str	r3, [sp, #20]
     dc0:	6983      	ldr	r3, [r0, #24]
     dc2:	9306      	str	r3, [sp, #24]
     dc4:	4927      	ldr	r1, [pc, #156]	; (e64 <trace_stack+0xc0>)
     dc6:	69c3      	ldr	r3, [r0, #28]
     dc8:	4827      	ldr	r0, [pc, #156]	; (e68 <trace_stack+0xc4>)
     dca:	9307      	str	r3, [sp, #28]
     dcc:	f000 fd96 	bl	18fc <printf>
     dd0:	9a00      	ldr	r2, [sp, #0]
     dd2:	4924      	ldr	r1, [pc, #144]	; (e64 <trace_stack+0xc0>)
     dd4:	4825      	ldr	r0, [pc, #148]	; (e6c <trace_stack+0xc8>)
     dd6:	4c26      	ldr	r4, [pc, #152]	; (e70 <trace_stack+0xcc>)
     dd8:	f000 fd90 	bl	18fc <printf>
     ddc:	9a01      	ldr	r2, [sp, #4]
     dde:	4921      	ldr	r1, [pc, #132]	; (e64 <trace_stack+0xc0>)
     de0:	4824      	ldr	r0, [pc, #144]	; (e74 <trace_stack+0xd0>)
     de2:	f000 fd8b 	bl	18fc <printf>
     de6:	9a02      	ldr	r2, [sp, #8]
     de8:	491e      	ldr	r1, [pc, #120]	; (e64 <trace_stack+0xc0>)
     dea:	4823      	ldr	r0, [pc, #140]	; (e78 <trace_stack+0xd4>)
     dec:	f000 fd86 	bl	18fc <printf>
     df0:	9a03      	ldr	r2, [sp, #12]
     df2:	491c      	ldr	r1, [pc, #112]	; (e64 <trace_stack+0xc0>)
     df4:	4821      	ldr	r0, [pc, #132]	; (e7c <trace_stack+0xd8>)
     df6:	f000 fd81 	bl	18fc <printf>
     dfa:	9a04      	ldr	r2, [sp, #16]
     dfc:	4919      	ldr	r1, [pc, #100]	; (e64 <trace_stack+0xc0>)
     dfe:	4820      	ldr	r0, [pc, #128]	; (e80 <trace_stack+0xdc>)
     e00:	f000 fd7c 	bl	18fc <printf>
     e04:	9a05      	ldr	r2, [sp, #20]
     e06:	4917      	ldr	r1, [pc, #92]	; (e64 <trace_stack+0xc0>)
     e08:	481e      	ldr	r0, [pc, #120]	; (e84 <trace_stack+0xe0>)
     e0a:	f000 fd77 	bl	18fc <printf>
     e0e:	9a06      	ldr	r2, [sp, #24]
     e10:	4914      	ldr	r1, [pc, #80]	; (e64 <trace_stack+0xc0>)
     e12:	481d      	ldr	r0, [pc, #116]	; (e88 <trace_stack+0xe4>)
     e14:	f000 fd72 	bl	18fc <printf>
     e18:	9a07      	ldr	r2, [sp, #28]
     e1a:	4912      	ldr	r1, [pc, #72]	; (e64 <trace_stack+0xc0>)
     e1c:	481b      	ldr	r0, [pc, #108]	; (e8c <trace_stack+0xe8>)
     e1e:	f000 fd6d 	bl	18fc <printf>
     e22:	6aa2      	ldr	r2, [r4, #40]	; 0x28
     e24:	490f      	ldr	r1, [pc, #60]	; (e64 <trace_stack+0xc0>)
     e26:	481a      	ldr	r0, [pc, #104]	; (e90 <trace_stack+0xec>)
     e28:	f000 fd68 	bl	18fc <printf>
     e2c:	6ae2      	ldr	r2, [r4, #44]	; 0x2c
     e2e:	490d      	ldr	r1, [pc, #52]	; (e64 <trace_stack+0xc0>)
     e30:	4818      	ldr	r0, [pc, #96]	; (e94 <trace_stack+0xf0>)
     e32:	f000 fd63 	bl	18fc <printf>
     e36:	6b62      	ldr	r2, [r4, #52]	; 0x34
     e38:	490a      	ldr	r1, [pc, #40]	; (e64 <trace_stack+0xc0>)
     e3a:	4817      	ldr	r0, [pc, #92]	; (e98 <trace_stack+0xf4>)
     e3c:	f000 fd5e 	bl	18fc <printf>
     e40:	6ba2      	ldr	r2, [r4, #56]	; 0x38
     e42:	4908      	ldr	r1, [pc, #32]	; (e64 <trace_stack+0xc0>)
     e44:	4815      	ldr	r0, [pc, #84]	; (e9c <trace_stack+0xf8>)
     e46:	f000 fd59 	bl	18fc <printf>
     e4a:	6862      	ldr	r2, [r4, #4]
     e4c:	4905      	ldr	r1, [pc, #20]	; (e64 <trace_stack+0xc0>)
     e4e:	4814      	ldr	r0, [pc, #80]	; (ea0 <trace_stack+0xfc>)
     e50:	f000 fd54 	bl	18fc <printf>
     e54:	f3ef 8208 	mrs	r2, MSP
     e58:	4902      	ldr	r1, [pc, #8]	; (e64 <trace_stack+0xc0>)
     e5a:	4812      	ldr	r0, [pc, #72]	; (ea4 <trace_stack+0x100>)
     e5c:	f000 fd4e 	bl	18fc <printf>
     e60:	e7fe      	b.n	e60 <trace_stack+0xbc>
     e62:	bf00      	nop
     e64:	00001924 	.word	0x00001924
     e68:	00001930 	.word	0x00001930
     e6c:	00001952 	.word	0x00001952
     e70:	e000ed00 	.word	0xe000ed00
     e74:	00001967 	.word	0x00001967
     e78:	0000197c 	.word	0x0000197c
     e7c:	00001991 	.word	0x00001991
     e80:	000019a6 	.word	0x000019a6
     e84:	000019bc 	.word	0x000019bc
     e88:	000019e3 	.word	0x000019e3
     e8c:	00001a0e 	.word	0x00001a0e
     e90:	00001a3c 	.word	0x00001a3c
     e94:	00001a53 	.word	0x00001a53
     e98:	00001a6a 	.word	0x00001a6a
     e9c:	00001a82 	.word	0x00001a82
     ea0:	00001a99 	.word	0x00001a99
     ea4:	00001ab0 	.word	0x00001ab0

00000ea8 <_putchar>:
     ea8:	4770      	bx	lr

00000eaa <init>:
     eaa:	b508      	push	{r3, lr}
     eac:	f000 f814 	bl	ed8 <systick_init>
     eb0:	2000      	movs	r0, #0
     eb2:	bd08      	pop	{r3, pc}

00000eb4 <main>:
     eb4:	e7fe      	b.n	eb4 <main>
	...

00000eb8 <_systick_isr>:
     eb8:	4906      	ldr	r1, [pc, #24]	; (ed4 <_systick_isr+0x1c>)
     eba:	e92d 4800 	stmdb	sp!, {fp, lr}
     ebe:	e9d1 bc00 	ldrd	fp, ip, [r1]
     ec2:	f11b 0201 	adds.w	r2, fp, #1
     ec6:	f14c 0300 	adc.w	r3, ip, #0
     eca:	e9c1 2300 	strd	r2, r3, [r1]
     ece:	e8bd 8800 	ldmia.w	sp!, {fp, pc}
     ed2:	bf00      	nop
     ed4:	20000000 	.word	0x20000000

00000ed8 <systick_init>:
     ed8:	4b05      	ldr	r3, [pc, #20]	; (ef0 <systick_init+0x18>)
     eda:	f644 2237 	movw	r2, #18999	; 0x4a37
     ede:	605a      	str	r2, [r3, #4]
     ee0:	2200      	movs	r2, #0
     ee2:	609a      	str	r2, [r3, #8]
     ee4:	2203      	movs	r2, #3
     ee6:	601a      	str	r2, [r3, #0]
     ee8:	22e0      	movs	r2, #224	; 0xe0
     eea:	f883 2d13 	strb.w	r2, [r3, #3347]	; 0xd13
     eee:	4770      	bx	lr
     ef0:	e000e010 	.word	0xe000e010

00000ef4 <_default_isr>:
     ef4:	e7fe      	b.n	ef4 <_default_isr>

00000ef6 <__libc_init_array>:
     ef6:	4770      	bx	lr

00000ef8 <_reset_isr>:
     ef8:	b508      	push	{r3, lr}
     efa:	4a17      	ldr	r2, [pc, #92]	; (f58 <_reset_isr+0x60>)
     efc:	4b17      	ldr	r3, [pc, #92]	; (f5c <_reset_isr+0x64>)
     efe:	4918      	ldr	r1, [pc, #96]	; (f60 <_reset_isr+0x68>)
     f00:	428b      	cmp	r3, r1
     f02:	d31c      	bcc.n	f3e <_reset_isr+0x46>
     f04:	4a17      	ldr	r2, [pc, #92]	; (f64 <_reset_isr+0x6c>)
     f06:	4b18      	ldr	r3, [pc, #96]	; (f68 <_reset_isr+0x70>)
     f08:	4918      	ldr	r1, [pc, #96]	; (f6c <_reset_isr+0x74>)
     f0a:	428b      	cmp	r3, r1
     f0c:	d31c      	bcc.n	f48 <_reset_isr+0x50>
     f0e:	4b18      	ldr	r3, [pc, #96]	; (f70 <_reset_isr+0x78>)
     f10:	4a18      	ldr	r2, [pc, #96]	; (f74 <_reset_isr+0x7c>)
     f12:	2100      	movs	r1, #0
     f14:	4293      	cmp	r3, r2
     f16:	d31c      	bcc.n	f52 <_reset_isr+0x5a>
     f18:	f7ff ffed 	bl	ef6 <__libc_init_array>
     f1c:	4b16      	ldr	r3, [pc, #88]	; (f78 <_reset_isr+0x80>)
     f1e:	4a17      	ldr	r2, [pc, #92]	; (f7c <_reset_isr+0x84>)
     f20:	609a      	str	r2, [r3, #8]
     f22:	4a17      	ldr	r2, [pc, #92]	; (f80 <_reset_isr+0x88>)
     f24:	60da      	str	r2, [r3, #12]
     f26:	f8d3 2088 	ldr.w	r2, [r3, #136]	; 0x88
     f2a:	f442 0270 	orr.w	r2, r2, #15728640	; 0xf00000
     f2e:	f8c3 2088 	str.w	r2, [r3, #136]	; 0x88
     f32:	f7ff ffba 	bl	eaa <init>
     f36:	f7ff ffbd 	bl	eb4 <main>
     f3a:	b672      	cpsid	i
     f3c:	e7fe      	b.n	f3c <_reset_isr+0x44>
     f3e:	f852 0f04 	ldr.w	r0, [r2, #4]!
     f42:	f843 0b04 	str.w	r0, [r3], #4
     f46:	e7db      	b.n	f00 <_reset_isr+0x8>
     f48:	f852 0f04 	ldr.w	r0, [r2, #4]!
     f4c:	f843 0b04 	str.w	r0, [r3], #4
     f50:	e7db      	b.n	f0a <_reset_isr+0x12>
     f52:	f843 1b04 	str.w	r1, [r3], #4
     f56:	e7dd      	b.n	f14 <_reset_isr+0x1c>
     f58:	00001b1c 	.word	0x00001b1c
     f5c:	10000000 	.word	0x10000000
     f60:	10000000 	.word	0x10000000
     f64:	00001b1c 	.word	0x00001b1c
     f68:	20000000 	.word	0x20000000
     f6c:	20000000 	.word	0x20000000
     f70:	20000000 	.word	0x20000000
     f74:	20000008 	.word	0x20000008
     f78:	e000ed00 	.word	0xe000ed00
     f7c:	00000000 	.word	0x00000000
     f80:	05fa0500 	.word	0x05fa0500

00000f84 <_out_null>:
     f84:	4770      	bx	lr

00000f86 <_ntoa_format>:
     f86:	e92d 4ff7 	stmdb	sp!, {r0, r1, r2, r4, r5, r6, r7, r8, r9, sl, fp, lr}
     f8a:	469a      	mov	sl, r3
     f8c:	e9dd 7311 	ldrd	r7, r3, [sp, #68]	; 0x44
     f90:	4680      	mov	r8, r0
     f92:	f013 0002 	ands.w	r0, r3, #2
     f96:	4689      	mov	r9, r1
     f98:	e9dd 540c 	ldrd	r5, r4, [sp, #48]	; 0x30
     f9c:	f89d 6038 	ldrb.w	r6, [sp, #56]	; 0x38
     fa0:	9000      	str	r0, [sp, #0]
     fa2:	e9dd 1b0f 	ldrd	r1, fp, [sp, #60]	; 0x3c
     fa6:	f04f 0c30 	mov.w	ip, #48	; 0x30
     faa:	d044      	beq.n	1036 <_ntoa_format+0xb0>
     fac:	f003 0c03 	and.w	ip, r3, #3
     fb0:	f1bc 0f01 	cmp.w	ip, #1
     fb4:	f04f 0e30 	mov.w	lr, #48	; 0x30
     fb8:	d045      	beq.n	1046 <_ntoa_format+0xc0>
     fba:	06d8      	lsls	r0, r3, #27
     fbc:	d518      	bpl.n	ff0 <_ntoa_format+0x6a>
     fbe:	45a3      	cmp	fp, r4
     fc0:	d001      	beq.n	fc6 <_ntoa_format+0x40>
     fc2:	42a7      	cmp	r7, r4
     fc4:	d144      	bne.n	1050 <_ntoa_format+0xca>
     fc6:	2c00      	cmp	r4, #0
     fc8:	d079      	beq.n	10be <_ntoa_format+0x138>
     fca:	2910      	cmp	r1, #16
     fcc:	f104 30ff 	add.w	r0, r4, #4294967295	; 0xffffffff
     fd0:	d147      	bne.n	1062 <_ntoa_format+0xdc>
     fd2:	2800      	cmp	r0, #0
     fd4:	d041      	beq.n	105a <_ntoa_format+0xd4>
     fd6:	3c02      	subs	r4, #2
     fd8:	0698      	lsls	r0, r3, #26
     fda:	d473      	bmi.n	10c4 <_ntoa_format+0x13e>
     fdc:	2c1f      	cmp	r4, #31
     fde:	d873      	bhi.n	10c8 <_ntoa_format+0x142>
     fe0:	2178      	movs	r1, #120	; 0x78
     fe2:	5529      	strb	r1, [r5, r4]
     fe4:	3401      	adds	r4, #1
     fe6:	2c1f      	cmp	r4, #31
     fe8:	d86e      	bhi.n	10c8 <_ntoa_format+0x142>
     fea:	2130      	movs	r1, #48	; 0x30
     fec:	5529      	strb	r1, [r5, r4]
     fee:	3401      	adds	r4, #1
     ff0:	42bc      	cmp	r4, r7
     ff2:	d104      	bne.n	ffe <_ntoa_format+0x78>
     ff4:	b916      	cbnz	r6, ffc <_ntoa_format+0x76>
     ff6:	f013 0f0c 	tst.w	r3, #12
     ffa:	d059      	beq.n	10b0 <_ntoa_format+0x12a>
     ffc:	1e7c      	subs	r4, r7, #1
     ffe:	2c1f      	cmp	r4, #31
    1000:	d804      	bhi.n	100c <_ntoa_format+0x86>
    1002:	2e00      	cmp	r6, #0
    1004:	d057      	beq.n	10b6 <_ntoa_format+0x130>
    1006:	232d      	movs	r3, #45	; 0x2d
    1008:	552b      	strb	r3, [r5, r4]
    100a:	3401      	adds	r4, #1
    100c:	4616      	mov	r6, r2
    100e:	f1bc 0f00 	cmp.w	ip, #0
    1012:	d039      	beq.n	1088 <_ntoa_format+0x102>
    1014:	4425      	add	r5, r4
    1016:	f04f 0b00 	mov.w	fp, #0
    101a:	455c      	cmp	r4, fp
    101c:	eb06 020b 	add.w	r2, r6, fp
    1020:	d135      	bne.n	108e <_ntoa_format+0x108>
    1022:	9b00      	ldr	r3, [sp, #0]
    1024:	2b00      	cmp	r3, #0
    1026:	d140      	bne.n	10aa <_ntoa_format+0x124>
    1028:	4610      	mov	r0, r2
    102a:	b003      	add	sp, #12
    102c:	e8bd 8ff0 	ldmia.w	sp!, {r4, r5, r6, r7, r8, r9, sl, fp, pc}
    1030:	f805 c004 	strb.w	ip, [r5, r4]
    1034:	3401      	adds	r4, #1
    1036:	45a3      	cmp	fp, r4
    1038:	d9b8      	bls.n	fac <_ntoa_format+0x26>
    103a:	2c20      	cmp	r4, #32
    103c:	d1f8      	bne.n	1030 <_ntoa_format+0xaa>
    103e:	e7b5      	b.n	fac <_ntoa_format+0x26>
    1040:	f805 e004 	strb.w	lr, [r5, r4]
    1044:	3401      	adds	r4, #1
    1046:	42a7      	cmp	r7, r4
    1048:	d9b7      	bls.n	fba <_ntoa_format+0x34>
    104a:	2c20      	cmp	r4, #32
    104c:	d1f8      	bne.n	1040 <_ntoa_format+0xba>
    104e:	e7b4      	b.n	fba <_ntoa_format+0x34>
    1050:	2910      	cmp	r1, #16
    1052:	d0c1      	beq.n	fd8 <_ntoa_format+0x52>
    1054:	2c1f      	cmp	r4, #31
    1056:	d8d9      	bhi.n	100c <_ntoa_format+0x86>
    1058:	e7c7      	b.n	fea <_ntoa_format+0x64>
    105a:	4604      	mov	r4, r0
    105c:	e7bc      	b.n	fd8 <_ntoa_format+0x52>
    105e:	2158      	movs	r1, #88	; 0x58
    1060:	e7bf      	b.n	fe2 <_ntoa_format+0x5c>
    1062:	4604      	mov	r4, r0
    1064:	e7c1      	b.n	fea <_ntoa_format+0x64>
    1066:	071b      	lsls	r3, r3, #28
    1068:	d5d0      	bpl.n	100c <_ntoa_format+0x86>
    106a:	2320      	movs	r3, #32
    106c:	e7cc      	b.n	1008 <_ntoa_format+0x82>
    106e:	4632      	mov	r2, r6
    1070:	4653      	mov	r3, sl
    1072:	4649      	mov	r1, r9
    1074:	2020      	movs	r0, #32
    1076:	47c0      	blx	r8
    1078:	f106 0b01 	add.w	fp, r6, #1
    107c:	465e      	mov	r6, fp
    107e:	9b01      	ldr	r3, [sp, #4]
    1080:	4433      	add	r3, r6
    1082:	429f      	cmp	r7, r3
    1084:	d8f3      	bhi.n	106e <_ntoa_format+0xe8>
    1086:	e7c5      	b.n	1014 <_ntoa_format+0x8e>
    1088:	1aa3      	subs	r3, r4, r2
    108a:	9301      	str	r3, [sp, #4]
    108c:	e7f7      	b.n	107e <_ntoa_format+0xf8>
    108e:	4653      	mov	r3, sl
    1090:	4649      	mov	r1, r9
    1092:	f815 0d01 	ldrb.w	r0, [r5, #-1]!
    1096:	47c0      	blx	r8
    1098:	f10b 0b01 	add.w	fp, fp, #1
    109c:	e7bd      	b.n	101a <_ntoa_format+0x94>
    109e:	1c54      	adds	r4, r2, #1
    10a0:	4653      	mov	r3, sl
    10a2:	4649      	mov	r1, r9
    10a4:	2020      	movs	r0, #32
    10a6:	47c0      	blx	r8
    10a8:	4622      	mov	r2, r4
    10aa:	42ba      	cmp	r2, r7
    10ac:	d3f7      	bcc.n	109e <_ntoa_format+0x118>
    10ae:	e7bb      	b.n	1028 <_ntoa_format+0xa2>
    10b0:	2f1f      	cmp	r7, #31
    10b2:	463c      	mov	r4, r7
    10b4:	d8aa      	bhi.n	100c <_ntoa_format+0x86>
    10b6:	0759      	lsls	r1, r3, #29
    10b8:	d5d5      	bpl.n	1066 <_ntoa_format+0xe0>
    10ba:	232b      	movs	r3, #43	; 0x2b
    10bc:	e7a4      	b.n	1008 <_ntoa_format+0x82>
    10be:	2910      	cmp	r1, #16
    10c0:	d193      	bne.n	fea <_ntoa_format+0x64>
    10c2:	e789      	b.n	fd8 <_ntoa_format+0x52>
    10c4:	2c1f      	cmp	r4, #31
    10c6:	d9ca      	bls.n	105e <_ntoa_format+0xd8>
    10c8:	42a7      	cmp	r7, r4
    10ca:	d093      	beq.n	ff4 <_ntoa_format+0x6e>
    10cc:	e79e      	b.n	100c <_ntoa_format+0x86>

000010ce <_ntoa_long>:
    10ce:	e92d 41f0 	stmdb	sp!, {r4, r5, r6, r7, r8, lr}
    10d2:	b090      	sub	sp, #64	; 0x40
    10d4:	f8dd e06c 	ldr.w	lr, [sp, #108]	; 0x6c
    10d8:	9d16      	ldr	r5, [sp, #88]	; 0x58
    10da:	9f18      	ldr	r7, [sp, #96]	; 0x60
    10dc:	f41e 6f80 	tst.w	lr, #1024	; 0x400
    10e0:	d000      	beq.n	10e4 <_ntoa_long+0x16>
    10e2:	b395      	cbz	r5, 114a <_ntoa_long+0x7c>
    10e4:	f01e 0f20 	tst.w	lr, #32
    10e8:	f04f 0600 	mov.w	r6, #0
    10ec:	bf14      	ite	ne
    10ee:	f04f 0837 	movne.w	r8, #55	; 0x37
    10f2:	f04f 0857 	moveq.w	r8, #87	; 0x57
    10f6:	fbb5 fcf7 	udiv	ip, r5, r7
    10fa:	fb07 5c1c 	mls	ip, r7, ip, r5
    10fe:	fa5f f48c 	uxtb.w	r4, ip
    1102:	f1bc 0f09 	cmp.w	ip, #9
    1106:	f106 0601 	add.w	r6, r6, #1
    110a:	f10d 0c20 	add.w	ip, sp, #32
    110e:	bf94      	ite	ls
    1110:	3430      	addls	r4, #48	; 0x30
    1112:	4444      	addhi	r4, r8
    1114:	44b4      	add	ip, r6
    1116:	b2e4      	uxtb	r4, r4
    1118:	f80c 4c01 	strb.w	r4, [ip, #-1]
    111c:	fbb5 f5f7 	udiv	r5, r5, r7
    1120:	b10d      	cbz	r5, 1126 <_ntoa_long+0x58>
    1122:	2e20      	cmp	r6, #32
    1124:	d1e7      	bne.n	10f6 <_ntoa_long+0x28>
    1126:	9c1a      	ldr	r4, [sp, #104]	; 0x68
    1128:	9405      	str	r4, [sp, #20]
    112a:	9c19      	ldr	r4, [sp, #100]	; 0x64
    112c:	f8cd e018 	str.w	lr, [sp, #24]
    1130:	e9cd 7403 	strd	r7, r4, [sp, #12]
    1134:	f89d 405c 	ldrb.w	r4, [sp, #92]	; 0x5c
    1138:	e9cd 6401 	strd	r6, r4, [sp, #4]
    113c:	ac08      	add	r4, sp, #32
    113e:	9400      	str	r4, [sp, #0]
    1140:	f7ff ff21 	bl	f86 <_ntoa_format>
    1144:	b010      	add	sp, #64	; 0x40
    1146:	e8bd 81f0 	ldmia.w	sp!, {r4, r5, r6, r7, r8, pc}
    114a:	462e      	mov	r6, r5
    114c:	e7eb      	b.n	1126 <_ntoa_long+0x58>

0000114e <_ntoa_long_long>:
    114e:	e92d 4ff0 	stmdb	sp!, {r4, r5, r6, r7, r8, r9, sl, fp, lr}
    1152:	b091      	sub	sp, #68	; 0x44
    1154:	4699      	mov	r9, r3
    1156:	9b22      	ldr	r3, [sp, #136]	; 0x88
    1158:	055b      	lsls	r3, r3, #21
    115a:	4606      	mov	r6, r0
    115c:	460f      	mov	r7, r1
    115e:	4690      	mov	r8, r2
    1160:	e9dd 011a 	ldrd	r0, r1, [sp, #104]	; 0x68
    1164:	e9dd 5a1e 	ldrd	r5, sl, [sp, #120]	; 0x78
    1168:	d502      	bpl.n	1170 <_ntoa_long_long+0x22>
    116a:	ea50 0301 	orrs.w	r3, r0, r1
    116e:	d036      	beq.n	11de <_ntoa_long_long+0x90>
    1170:	9b22      	ldr	r3, [sp, #136]	; 0x88
    1172:	f013 0f20 	tst.w	r3, #32
    1176:	f04f 0400 	mov.w	r4, #0
    117a:	bf14      	ite	ne
    117c:	f04f 0b37 	movne.w	fp, #55	; 0x37
    1180:	f04f 0b57 	moveq.w	fp, #87	; 0x57
    1184:	462a      	mov	r2, r5
    1186:	4653      	mov	r3, sl
    1188:	f7ff fc80 	bl	a8c <__aeabi_uldivmod>
    118c:	b2d2      	uxtb	r2, r2
    118e:	2a09      	cmp	r2, #9
    1190:	468c      	mov	ip, r1
    1192:	f104 0401 	add.w	r4, r4, #1
    1196:	a908      	add	r1, sp, #32
    1198:	bf94      	ite	ls
    119a:	3230      	addls	r2, #48	; 0x30
    119c:	445a      	addhi	r2, fp
    119e:	4421      	add	r1, r4
    11a0:	b2d2      	uxtb	r2, r2
    11a2:	f801 2c01 	strb.w	r2, [r1, #-1]
    11a6:	4661      	mov	r1, ip
    11a8:	ea50 0301 	orrs.w	r3, r0, r1
    11ac:	d001      	beq.n	11b2 <_ntoa_long_long+0x64>
    11ae:	2c20      	cmp	r4, #32
    11b0:	d1e8      	bne.n	1184 <_ntoa_long_long+0x36>
    11b2:	9b22      	ldr	r3, [sp, #136]	; 0x88
    11b4:	9306      	str	r3, [sp, #24]
    11b6:	9b21      	ldr	r3, [sp, #132]	; 0x84
    11b8:	9305      	str	r3, [sp, #20]
    11ba:	9b20      	ldr	r3, [sp, #128]	; 0x80
    11bc:	e9cd 5303 	strd	r5, r3, [sp, #12]
    11c0:	f89d 3070 	ldrb.w	r3, [sp, #112]	; 0x70
    11c4:	e9cd 4301 	strd	r4, r3, [sp, #4]
    11c8:	ab08      	add	r3, sp, #32
    11ca:	9300      	str	r3, [sp, #0]
    11cc:	4642      	mov	r2, r8
    11ce:	464b      	mov	r3, r9
    11d0:	4639      	mov	r1, r7
    11d2:	4630      	mov	r0, r6
    11d4:	f7ff fed7 	bl	f86 <_ntoa_format>
    11d8:	b011      	add	sp, #68	; 0x44
    11da:	e8bd 8ff0 	ldmia.w	sp!, {r4, r5, r6, r7, r8, r9, sl, fp, pc}
    11de:	2400      	movs	r4, #0
    11e0:	e7e7      	b.n	11b2 <_ntoa_long_long+0x64>

000011e2 <_out_char>:
    11e2:	b108      	cbz	r0, 11e8 <_out_char+0x6>
    11e4:	f7ff be60 	b.w	ea8 <_putchar>
    11e8:	4770      	bx	lr
    11ea:	0000      	movs	r0, r0
    11ec:	0000      	movs	r0, r0
	...

000011f0 <_vsnprintf>:
    11f0:	e92d 4ff0 	stmdb	sp!, {r4, r5, r6, r7, r8, r9, sl, fp, lr}
    11f4:	4699      	mov	r9, r3
    11f6:	b09f      	sub	sp, #124	; 0x7c
    11f8:	4b7d      	ldr	r3, [pc, #500]	; (13f0 <_vsnprintf+0x200>)
    11fa:	f8dd b0a0 	ldr.w	fp, [sp, #160]	; 0xa0
    11fe:	910b      	str	r1, [sp, #44]	; 0x2c
    1200:	2900      	cmp	r1, #0
    1202:	bf18      	it	ne
    1204:	4603      	movne	r3, r0
    1206:	4692      	mov	sl, r2
    1208:	930c      	str	r3, [sp, #48]	; 0x30
    120a:	460a      	mov	r2, r1
    120c:	2500      	movs	r5, #0
    120e:	f899 0000 	ldrb.w	r0, [r9]
    1212:	b968      	cbnz	r0, 1230 <_vsnprintf+0x40>
    1214:	4555      	cmp	r5, sl
    1216:	bf2c      	ite	cs
    1218:	f10a 32ff 	addcs.w	r2, sl, #4294967295	; 0xffffffff
    121c:	462a      	movcc	r2, r5
    121e:	4653      	mov	r3, sl
    1220:	990b      	ldr	r1, [sp, #44]	; 0x2c
    1222:	9c0c      	ldr	r4, [sp, #48]	; 0x30
    1224:	2000      	movs	r0, #0
    1226:	47a0      	blx	r4
    1228:	4628      	mov	r0, r5
    122a:	b01f      	add	sp, #124	; 0x7c
    122c:	e8bd 8ff0 	ldmia.w	sp!, {r4, r5, r6, r7, r8, r9, sl, fp, pc}
    1230:	2825      	cmp	r0, #37	; 0x25
    1232:	f109 0901 	add.w	r9, r9, #1
    1236:	d007      	beq.n	1248 <_vsnprintf+0x58>
    1238:	1c6c      	adds	r4, r5, #1
    123a:	462a      	mov	r2, r5
    123c:	4653      	mov	r3, sl
    123e:	e9dd 150b 	ldrd	r1, r5, [sp, #44]	; 0x2c
    1242:	47a8      	blx	r5
    1244:	4625      	mov	r5, r4
    1246:	e7e2      	b.n	120e <_vsnprintf+0x1e>
    1248:	2400      	movs	r4, #0
    124a:	e006      	b.n	125a <_vsnprintf+0x6a>
    124c:	2b2d      	cmp	r3, #45	; 0x2d
    124e:	d016      	beq.n	127e <_vsnprintf+0x8e>
    1250:	2b30      	cmp	r3, #48	; 0x30
    1252:	d10c      	bne.n	126e <_vsnprintf+0x7e>
    1254:	f044 0401 	orr.w	r4, r4, #1
    1258:	4691      	mov	r9, r2
    125a:	464a      	mov	r2, r9
    125c:	f812 3b01 	ldrb.w	r3, [r2], #1
    1260:	2b2b      	cmp	r3, #43	; 0x2b
    1262:	d00f      	beq.n	1284 <_vsnprintf+0x94>
    1264:	d8f2      	bhi.n	124c <_vsnprintf+0x5c>
    1266:	2b20      	cmp	r3, #32
    1268:	d00f      	beq.n	128a <_vsnprintf+0x9a>
    126a:	2b23      	cmp	r3, #35	; 0x23
    126c:	d010      	beq.n	1290 <_vsnprintf+0xa0>
    126e:	f1a3 0130 	sub.w	r1, r3, #48	; 0x30
    1272:	2909      	cmp	r1, #9
    1274:	d82d      	bhi.n	12d2 <_vsnprintf+0xe2>
    1276:	2300      	movs	r3, #0
    1278:	930d      	str	r3, [sp, #52]	; 0x34
    127a:	200a      	movs	r0, #10
    127c:	e011      	b.n	12a2 <_vsnprintf+0xb2>
    127e:	f044 0402 	orr.w	r4, r4, #2
    1282:	e7e9      	b.n	1258 <_vsnprintf+0x68>
    1284:	f044 0404 	orr.w	r4, r4, #4
    1288:	e7e6      	b.n	1258 <_vsnprintf+0x68>
    128a:	f044 0408 	orr.w	r4, r4, #8
    128e:	e7e3      	b.n	1258 <_vsnprintf+0x68>
    1290:	f044 0410 	orr.w	r4, r4, #16
    1294:	e7e0      	b.n	1258 <_vsnprintf+0x68>
    1296:	990d      	ldr	r1, [sp, #52]	; 0x34
    1298:	fb00 3301 	mla	r3, r0, r1, r3
    129c:	3b30      	subs	r3, #48	; 0x30
    129e:	930d      	str	r3, [sp, #52]	; 0x34
    12a0:	4691      	mov	r9, r2
    12a2:	464a      	mov	r2, r9
    12a4:	f812 3b01 	ldrb.w	r3, [r2], #1
    12a8:	f1a3 0130 	sub.w	r1, r3, #48	; 0x30
    12ac:	2909      	cmp	r1, #9
    12ae:	d9f2      	bls.n	1296 <_vsnprintf+0xa6>
    12b0:	f899 3000 	ldrb.w	r3, [r9]
    12b4:	2b2e      	cmp	r3, #46	; 0x2e
    12b6:	d142      	bne.n	133e <_vsnprintf+0x14e>
    12b8:	f899 2001 	ldrb.w	r2, [r9, #1]
    12bc:	f1a2 0130 	sub.w	r1, r2, #48	; 0x30
    12c0:	2909      	cmp	r1, #9
    12c2:	f109 0301 	add.w	r3, r9, #1
    12c6:	f444 6480 	orr.w	r4, r4, #1024	; 0x400
    12ca:	d82e      	bhi.n	132a <_vsnprintf+0x13a>
    12cc:	2600      	movs	r6, #0
    12ce:	200a      	movs	r0, #10
    12d0:	e016      	b.n	1300 <_vsnprintf+0x110>
    12d2:	2b2a      	cmp	r3, #42	; 0x2a
    12d4:	d10c      	bne.n	12f0 <_vsnprintf+0x100>
    12d6:	f8db 3000 	ldr.w	r3, [fp]
    12da:	2b00      	cmp	r3, #0
    12dc:	f10b 0104 	add.w	r1, fp, #4
    12e0:	bfbc      	itt	lt
    12e2:	425b      	neglt	r3, r3
    12e4:	f044 0402 	orrlt.w	r4, r4, #2
    12e8:	930d      	str	r3, [sp, #52]	; 0x34
    12ea:	468b      	mov	fp, r1
    12ec:	4691      	mov	r9, r2
    12ee:	e7df      	b.n	12b0 <_vsnprintf+0xc0>
    12f0:	2300      	movs	r3, #0
    12f2:	930d      	str	r3, [sp, #52]	; 0x34
    12f4:	e7dc      	b.n	12b0 <_vsnprintf+0xc0>
    12f6:	fb00 7306 	mla	r3, r0, r6, r7
    12fa:	f1a3 0630 	sub.w	r6, r3, #48	; 0x30
    12fe:	4613      	mov	r3, r2
    1300:	461a      	mov	r2, r3
    1302:	f812 7b01 	ldrb.w	r7, [r2], #1
    1306:	f1a7 0130 	sub.w	r1, r7, #48	; 0x30
    130a:	2909      	cmp	r1, #9
    130c:	d9f3      	bls.n	12f6 <_vsnprintf+0x106>
    130e:	4699      	mov	r9, r3
    1310:	f899 3000 	ldrb.w	r3, [r9]
    1314:	2b6c      	cmp	r3, #108	; 0x6c
    1316:	f109 0201 	add.w	r2, r9, #1
    131a:	d019      	beq.n	1350 <_vsnprintf+0x160>
    131c:	d811      	bhi.n	1342 <_vsnprintf+0x152>
    131e:	2b68      	cmp	r3, #104	; 0x68
    1320:	d01f      	beq.n	1362 <_vsnprintf+0x172>
    1322:	2b6a      	cmp	r3, #106	; 0x6a
    1324:	d060      	beq.n	13e8 <_vsnprintf+0x1f8>
    1326:	464a      	mov	r2, r9
    1328:	e021      	b.n	136e <_vsnprintf+0x17e>
    132a:	2a2a      	cmp	r2, #42	; 0x2a
    132c:	d106      	bne.n	133c <_vsnprintf+0x14c>
    132e:	f8db 6000 	ldr.w	r6, [fp]
    1332:	f109 0902 	add.w	r9, r9, #2
    1336:	f10b 0b04 	add.w	fp, fp, #4
    133a:	e7e9      	b.n	1310 <_vsnprintf+0x120>
    133c:	4699      	mov	r9, r3
    133e:	2600      	movs	r6, #0
    1340:	e7e6      	b.n	1310 <_vsnprintf+0x120>
    1342:	2b74      	cmp	r3, #116	; 0x74
    1344:	d001      	beq.n	134a <_vsnprintf+0x15a>
    1346:	2b7a      	cmp	r3, #122	; 0x7a
    1348:	d1ed      	bne.n	1326 <_vsnprintf+0x136>
    134a:	f444 7480 	orr.w	r4, r4, #256	; 0x100
    134e:	e00e      	b.n	136e <_vsnprintf+0x17e>
    1350:	f899 3001 	ldrb.w	r3, [r9, #1]
    1354:	2b6c      	cmp	r3, #108	; 0x6c
    1356:	d1f8      	bne.n	134a <_vsnprintf+0x15a>
    1358:	f444 7440 	orr.w	r4, r4, #768	; 0x300
    135c:	f109 0202 	add.w	r2, r9, #2
    1360:	e005      	b.n	136e <_vsnprintf+0x17e>
    1362:	f899 3001 	ldrb.w	r3, [r9, #1]
    1366:	2b68      	cmp	r3, #104	; 0x68
    1368:	d03b      	beq.n	13e2 <_vsnprintf+0x1f2>
    136a:	f044 0480 	orr.w	r4, r4, #128	; 0x80
    136e:	4691      	mov	r9, r2
    1370:	f819 0b01 	ldrb.w	r0, [r9], #1
    1374:	2866      	cmp	r0, #102	; 0x66
    1376:	d045      	beq.n	1404 <_vsnprintf+0x214>
    1378:	f200 80d5 	bhi.w	1526 <_vsnprintf+0x336>
    137c:	2858      	cmp	r0, #88	; 0x58
    137e:	d139      	bne.n	13f4 <_vsnprintf+0x204>
    1380:	f044 0420 	orr.w	r4, r4, #32
    1384:	2869      	cmp	r0, #105	; 0x69
    1386:	f024 010c 	bic.w	r1, r4, #12
    138a:	f040 82a0 	bne.w	18ce <_vsnprintf+0x6de>
    138e:	460c      	mov	r4, r1
    1390:	2310      	movs	r3, #16
    1392:	05a7      	lsls	r7, r4, #22
    1394:	f140 80f9 	bpl.w	158a <_vsnprintf+0x39a>
    1398:	f10b 0b07 	add.w	fp, fp, #7
    139c:	f02b 0b07 	bic.w	fp, fp, #7
    13a0:	e9db 0100 	ldrd	r0, r1, [fp]
    13a4:	9304      	str	r3, [sp, #16]
    13a6:	2300      	movs	r3, #0
    13a8:	9305      	str	r3, [sp, #20]
    13aa:	0fcb      	lsrs	r3, r1, #31
    13ac:	9a0d      	ldr	r2, [sp, #52]	; 0x34
    13ae:	9302      	str	r3, [sp, #8]
    13b0:	2800      	cmp	r0, #0
    13b2:	460b      	mov	r3, r1
    13b4:	f173 0100 	sbcs.w	r1, r3, #0
    13b8:	e9cd 6206 	strd	r6, r2, [sp, #24]
    13bc:	f10b 0708 	add.w	r7, fp, #8
    13c0:	9408      	str	r4, [sp, #32]
    13c2:	4602      	mov	r2, r0
    13c4:	da02      	bge.n	13cc <_vsnprintf+0x1dc>
    13c6:	4242      	negs	r2, r0
    13c8:	eb63 0343 	sbc.w	r3, r3, r3, lsl #1
    13cc:	e9cd 2300 	strd	r2, r3, [sp]
    13d0:	e9dd 100b 	ldrd	r1, r0, [sp, #44]	; 0x2c
    13d4:	4653      	mov	r3, sl
    13d6:	462a      	mov	r2, r5
    13d8:	f7ff feb9 	bl	114e <_ntoa_long_long>
    13dc:	4605      	mov	r5, r0
    13de:	46bb      	mov	fp, r7
    13e0:	e715      	b.n	120e <_vsnprintf+0x1e>
    13e2:	f044 04c0 	orr.w	r4, r4, #192	; 0xc0
    13e6:	e7b9      	b.n	135c <_vsnprintf+0x16c>
    13e8:	f444 7400 	orr.w	r4, r4, #512	; 0x200
    13ec:	e7bf      	b.n	136e <_vsnprintf+0x17e>
    13ee:	bf00      	nop
    13f0:	00000f85 	.word	0x00000f85
    13f4:	f200 8088 	bhi.w	1508 <_vsnprintf+0x318>
    13f8:	2825      	cmp	r0, #37	; 0x25
    13fa:	f43f af1d 	beq.w	1238 <_vsnprintf+0x48>
    13fe:	2846      	cmp	r0, #70	; 0x46
    1400:	f47f af1a 	bne.w	1238 <_vsnprintf+0x48>
    1404:	f10b 0b07 	add.w	fp, fp, #7
    1408:	f02b 0307 	bic.w	r3, fp, #7
    140c:	ed93 7b00 	vldr	d7, [r3]
    1410:	f103 0b08 	add.w	fp, r3, #8
    1414:	2200      	movs	r2, #0
    1416:	2300      	movs	r3, #0
    1418:	ec51 0b17 	vmov	r0, r1, d7
    141c:	ed8d 7b0e 	vstr	d7, [sp, #56]	; 0x38
    1420:	f7ff fac4 	bl	9ac <__aeabi_dcmplt>
    1424:	2800      	cmp	r0, #0
    1426:	f000 80f3 	beq.w	1610 <_vsnprintf+0x420>
    142a:	e9dd 230e 	ldrd	r2, r3, [sp, #56]	; 0x38
    142e:	2000      	movs	r0, #0
    1430:	2100      	movs	r1, #0
    1432:	f7fe fe91 	bl	158 <__aeabi_dsub>
    1436:	e9cd 010e 	strd	r0, r1, [sp, #56]	; 0x38
    143a:	2301      	movs	r3, #1
    143c:	9311      	str	r3, [sp, #68]	; 0x44
    143e:	0562      	lsls	r2, r4, #21
    1440:	f140 80e8 	bpl.w	1614 <_vsnprintf+0x424>
    1444:	2e09      	cmp	r6, #9
    1446:	bf28      	it	cs
    1448:	2609      	movcs	r6, #9
    144a:	9610      	str	r6, [sp, #64]	; 0x40
    144c:	e9dd 010e 	ldrd	r0, r1, [sp, #56]	; 0x38
    1450:	f7ff fad4 	bl	9fc <__aeabi_d2iz>
    1454:	9a10      	ldr	r2, [sp, #64]	; 0x40
    1456:	4bba      	ldr	r3, [pc, #744]	; (1740 <_vsnprintf+0x550>)
    1458:	eb03 03c2 	add.w	r3, r3, r2, lsl #3
    145c:	ed93 7b00 	vldr	d7, [r3]
    1460:	4606      	mov	r6, r0
    1462:	ed8d 7b12 	vstr	d7, [sp, #72]	; 0x48
    1466:	f7fe ffc5 	bl	3f4 <__aeabi_i2d>
    146a:	4602      	mov	r2, r0
    146c:	460b      	mov	r3, r1
    146e:	e9dd 010e 	ldrd	r0, r1, [sp, #56]	; 0x38
    1472:	f7fe fe71 	bl	158 <__aeabi_dsub>
    1476:	e9dd 2312 	ldrd	r2, r3, [sp, #72]	; 0x48
    147a:	f7ff f825 	bl	4c8 <__aeabi_dmul>
    147e:	e9cd 0114 	strd	r0, r1, [sp, #80]	; 0x50
    1482:	f7ff fae3 	bl	a4c <__aeabi_d2uiz>
    1486:	4607      	mov	r7, r0
    1488:	f7fe ffa4 	bl	3d4 <__aeabi_ui2d>
    148c:	4602      	mov	r2, r0
    148e:	460b      	mov	r3, r1
    1490:	e9dd 0114 	ldrd	r0, r1, [sp, #80]	; 0x50
    1494:	f7fe fe60 	bl	158 <__aeabi_dsub>
    1498:	2200      	movs	r2, #0
    149a:	4baa      	ldr	r3, [pc, #680]	; (1744 <_vsnprintf+0x554>)
    149c:	e9cd 0114 	strd	r0, r1, [sp, #80]	; 0x50
    14a0:	f7ff faa2 	bl	9e8 <__aeabi_dcmpgt>
    14a4:	2800      	cmp	r0, #0
    14a6:	f000 80b8 	beq.w	161a <_vsnprintf+0x42a>
    14aa:	3701      	adds	r7, #1
    14ac:	4638      	mov	r0, r7
    14ae:	f7fe ff91 	bl	3d4 <__aeabi_ui2d>
    14b2:	4602      	mov	r2, r0
    14b4:	460b      	mov	r3, r1
    14b6:	e9dd 0112 	ldrd	r0, r1, [sp, #72]	; 0x48
    14ba:	f7ff fa81 	bl	9c0 <__aeabi_dcmple>
    14be:	b108      	cbz	r0, 14c4 <_vsnprintf+0x2d4>
    14c0:	3601      	adds	r6, #1
    14c2:	2700      	movs	r7, #0
    14c4:	a39c      	add	r3, pc, #624	; (adr r3, 1738 <_vsnprintf+0x548>)
    14c6:	e9d3 2300 	ldrd	r2, r3, [r3]
    14ca:	e9dd 010e 	ldrd	r0, r1, [sp, #56]	; 0x38
    14ce:	f7ff fa8b 	bl	9e8 <__aeabi_dcmpgt>
    14d2:	2800      	cmp	r0, #0
    14d4:	f040 8169 	bne.w	17aa <_vsnprintf+0x5ba>
    14d8:	9b10      	ldr	r3, [sp, #64]	; 0x40
    14da:	2b00      	cmp	r3, #0
    14dc:	f040 80f1 	bne.w	16c2 <_vsnprintf+0x4d2>
    14e0:	4630      	mov	r0, r6
    14e2:	f7fe ff87 	bl	3f4 <__aeabi_i2d>
    14e6:	4602      	mov	r2, r0
    14e8:	460b      	mov	r3, r1
    14ea:	e9dd 010e 	ldrd	r0, r1, [sp, #56]	; 0x38
    14ee:	f7fe fe33 	bl	158 <__aeabi_dsub>
    14f2:	2200      	movs	r2, #0
    14f4:	4b93      	ldr	r3, [pc, #588]	; (1744 <_vsnprintf+0x554>)
    14f6:	4607      	mov	r7, r0
    14f8:	4688      	mov	r8, r1
    14fa:	f7ff fa75 	bl	9e8 <__aeabi_dcmpgt>
    14fe:	2800      	cmp	r0, #0
    1500:	f000 809a 	beq.w	1638 <_vsnprintf+0x448>
    1504:	3601      	adds	r6, #1
    1506:	e0a1      	b.n	164c <_vsnprintf+0x45c>
    1508:	2863      	cmp	r0, #99	; 0x63
    150a:	f000 8150 	beq.w	17ae <_vsnprintf+0x5be>
    150e:	2864      	cmp	r0, #100	; 0x64
    1510:	d002      	beq.n	1518 <_vsnprintf+0x328>
    1512:	2862      	cmp	r0, #98	; 0x62
    1514:	f47f ae90 	bne.w	1238 <_vsnprintf+0x48>
    1518:	2862      	cmp	r0, #98	; 0x62
    151a:	f024 0410 	bic.w	r4, r4, #16
    151e:	f040 81cd 	bne.w	18bc <_vsnprintf+0x6cc>
    1522:	2302      	movs	r3, #2
    1524:	e009      	b.n	153a <_vsnprintf+0x34a>
    1526:	2870      	cmp	r0, #112	; 0x70
    1528:	f000 81b0 	beq.w	188c <_vsnprintf+0x69c>
    152c:	d808      	bhi.n	1540 <_vsnprintf+0x350>
    152e:	2869      	cmp	r0, #105	; 0x69
    1530:	d0f2      	beq.n	1518 <_vsnprintf+0x328>
    1532:	286f      	cmp	r0, #111	; 0x6f
    1534:	f47f ae80 	bne.w	1238 <_vsnprintf+0x48>
    1538:	2308      	movs	r3, #8
    153a:	f024 010c 	bic.w	r1, r4, #12
    153e:	e1c7      	b.n	18d0 <_vsnprintf+0x6e0>
    1540:	2875      	cmp	r0, #117	; 0x75
    1542:	d0e9      	beq.n	1518 <_vsnprintf+0x328>
    1544:	2878      	cmp	r0, #120	; 0x78
    1546:	f43f af1d 	beq.w	1384 <_vsnprintf+0x194>
    154a:	2873      	cmp	r0, #115	; 0x73
    154c:	f47f ae74 	bne.w	1238 <_vsnprintf+0x48>
    1550:	f8db 7000 	ldr.w	r7, [fp]
    1554:	f10b 0304 	add.w	r3, fp, #4
    1558:	9310      	str	r3, [sp, #64]	; 0x40
    155a:	46b8      	mov	r8, r7
    155c:	f898 3000 	ldrb.w	r3, [r8]
    1560:	f108 0201 	add.w	r2, r8, #1
    1564:	2b00      	cmp	r3, #0
    1566:	f040 8158 	bne.w	181a <_vsnprintf+0x62a>
    156a:	f414 6b80 	ands.w	fp, r4, #1024	; 0x400
    156e:	eba8 0807 	sub.w	r8, r8, r7
    1572:	d002      	beq.n	157a <_vsnprintf+0x38a>
    1574:	45b0      	cmp	r8, r6
    1576:	bf28      	it	cs
    1578:	46b0      	movcs	r8, r6
    157a:	f014 0302 	ands.w	r3, r4, #2
    157e:	930e      	str	r3, [sp, #56]	; 0x38
    1580:	f000 815b 	beq.w	183a <_vsnprintf+0x64a>
    1584:	462a      	mov	r2, r5
    1586:	1bd5      	subs	r5, r2, r7
    1588:	e15f      	b.n	184a <_vsnprintf+0x65a>
    158a:	05e0      	lsls	r0, r4, #23
    158c:	f10b 0704 	add.w	r7, fp, #4
    1590:	d513      	bpl.n	15ba <_vsnprintf+0x3ca>
    1592:	f8db 2000 	ldr.w	r2, [fp]
    1596:	990d      	ldr	r1, [sp, #52]	; 0x34
    1598:	9302      	str	r3, [sp, #8]
    159a:	e9cd 6103 	strd	r6, r1, [sp, #12]
    159e:	0fd3      	lsrs	r3, r2, #31
    15a0:	2a00      	cmp	r2, #0
    15a2:	9405      	str	r4, [sp, #20]
    15a4:	9301      	str	r3, [sp, #4]
    15a6:	bfb8      	it	lt
    15a8:	4252      	neglt	r2, r2
    15aa:	9200      	str	r2, [sp, #0]
    15ac:	4653      	mov	r3, sl
    15ae:	462a      	mov	r2, r5
    15b0:	e9dd 100b 	ldrd	r1, r0, [sp, #44]	; 0x2c
    15b4:	f7ff fd8b 	bl	10ce <_ntoa_long>
    15b8:	e710      	b.n	13dc <_vsnprintf+0x1ec>
    15ba:	f014 0f40 	tst.w	r4, #64	; 0x40
    15be:	f8db 2000 	ldr.w	r2, [fp]
    15c2:	d001      	beq.n	15c8 <_vsnprintf+0x3d8>
    15c4:	b2d2      	uxtb	r2, r2
    15c6:	e7e6      	b.n	1596 <_vsnprintf+0x3a6>
    15c8:	0621      	lsls	r1, r4, #24
    15ca:	bf48      	it	mi
    15cc:	b212      	sxthmi	r2, r2
    15ce:	e7e2      	b.n	1596 <_vsnprintf+0x3a6>
    15d0:	05e0      	lsls	r0, r4, #23
    15d2:	f10b 0704 	add.w	r7, fp, #4
    15d6:	d509      	bpl.n	15ec <_vsnprintf+0x3fc>
    15d8:	9105      	str	r1, [sp, #20]
    15da:	990d      	ldr	r1, [sp, #52]	; 0x34
    15dc:	e9cd 2301 	strd	r2, r3, [sp, #4]
    15e0:	e9cd 6103 	strd	r6, r1, [sp, #12]
    15e4:	f8db 3000 	ldr.w	r3, [fp]
    15e8:	9300      	str	r3, [sp, #0]
    15ea:	e7df      	b.n	15ac <_vsnprintf+0x3bc>
    15ec:	f014 0f40 	tst.w	r4, #64	; 0x40
    15f0:	f8db 2000 	ldr.w	r2, [fp]
    15f4:	d008      	beq.n	1608 <_vsnprintf+0x418>
    15f6:	b2d2      	uxtb	r2, r2
    15f8:	9105      	str	r1, [sp, #20]
    15fa:	990d      	ldr	r1, [sp, #52]	; 0x34
    15fc:	9302      	str	r3, [sp, #8]
    15fe:	2300      	movs	r3, #0
    1600:	e9cd 6103 	strd	r6, r1, [sp, #12]
    1604:	9301      	str	r3, [sp, #4]
    1606:	e7d0      	b.n	15aa <_vsnprintf+0x3ba>
    1608:	0620      	lsls	r0, r4, #24
    160a:	bf48      	it	mi
    160c:	b292      	uxthmi	r2, r2
    160e:	e7f3      	b.n	15f8 <_vsnprintf+0x408>
    1610:	9011      	str	r0, [sp, #68]	; 0x44
    1612:	e714      	b.n	143e <_vsnprintf+0x24e>
    1614:	2306      	movs	r3, #6
    1616:	9310      	str	r3, [sp, #64]	; 0x40
    1618:	e718      	b.n	144c <_vsnprintf+0x25c>
    161a:	2200      	movs	r2, #0
    161c:	4b49      	ldr	r3, [pc, #292]	; (1744 <_vsnprintf+0x554>)
    161e:	e9dd 0114 	ldrd	r0, r1, [sp, #80]	; 0x50
    1622:	f7ff f9b9 	bl	998 <__aeabi_dcmpeq>
    1626:	2800      	cmp	r0, #0
    1628:	f43f af4c 	beq.w	14c4 <_vsnprintf+0x2d4>
    162c:	b117      	cbz	r7, 1634 <_vsnprintf+0x444>
    162e:	07fb      	lsls	r3, r7, #31
    1630:	f57f af48 	bpl.w	14c4 <_vsnprintf+0x2d4>
    1634:	3701      	adds	r7, #1
    1636:	e745      	b.n	14c4 <_vsnprintf+0x2d4>
    1638:	2200      	movs	r2, #0
    163a:	4b42      	ldr	r3, [pc, #264]	; (1744 <_vsnprintf+0x554>)
    163c:	4638      	mov	r0, r7
    163e:	4641      	mov	r1, r8
    1640:	f7ff f9aa 	bl	998 <__aeabi_dcmpeq>
    1644:	b110      	cbz	r0, 164c <_vsnprintf+0x45c>
    1646:	07f7      	lsls	r7, r6, #31
    1648:	f53f af5c 	bmi.w	1504 <_vsnprintf+0x314>
    164c:	f8dd 8040 	ldr.w	r8, [sp, #64]	; 0x40
    1650:	230a      	movs	r3, #10
    1652:	f1b8 0f1f 	cmp.w	r8, #31
    1656:	d80e      	bhi.n	1676 <_vsnprintf+0x486>
    1658:	aa16      	add	r2, sp, #88	; 0x58
    165a:	f108 0801 	add.w	r8, r8, #1
    165e:	eb02 0108 	add.w	r1, r2, r8
    1662:	fb96 f2f3 	sdiv	r2, r6, r3
    1666:	fb03 6612 	mls	r6, r3, r2, r6
    166a:	3630      	adds	r6, #48	; 0x30
    166c:	f801 6c01 	strb.w	r6, [r1, #-1]
    1670:	4616      	mov	r6, r2
    1672:	2a00      	cmp	r2, #0
    1674:	d1ed      	bne.n	1652 <_vsnprintf+0x462>
    1676:	f004 0303 	and.w	r3, r4, #3
    167a:	2b01      	cmp	r3, #1
    167c:	aa16      	add	r2, sp, #88	; 0x58
    167e:	f04f 0130 	mov.w	r1, #48	; 0x30
    1682:	d04e      	beq.n	1722 <_vsnprintf+0x532>
    1684:	9a0d      	ldr	r2, [sp, #52]	; 0x34
    1686:	4590      	cmp	r8, r2
    1688:	d107      	bne.n	169a <_vsnprintf+0x4aa>
    168a:	9a11      	ldr	r2, [sp, #68]	; 0x44
    168c:	b91a      	cbnz	r2, 1696 <_vsnprintf+0x4a6>
    168e:	f014 0f0c 	tst.w	r4, #12
    1692:	f000 8108 	beq.w	18a6 <_vsnprintf+0x6b6>
    1696:	f108 38ff 	add.w	r8, r8, #4294967295	; 0xffffffff
    169a:	f1b8 0f1f 	cmp.w	r8, #31
    169e:	d80a      	bhi.n	16b6 <_vsnprintf+0x4c6>
    16a0:	9a11      	ldr	r2, [sp, #68]	; 0x44
    16a2:	2a00      	cmp	r2, #0
    16a4:	f000 8103 	beq.w	18ae <_vsnprintf+0x6be>
    16a8:	aa1e      	add	r2, sp, #120	; 0x78
    16aa:	4442      	add	r2, r8
    16ac:	212d      	movs	r1, #45	; 0x2d
    16ae:	f802 1c20 	strb.w	r1, [r2, #-32]
    16b2:	f108 0801 	add.w	r8, r8, #1
    16b6:	2b00      	cmp	r3, #0
    16b8:	d139      	bne.n	172e <_vsnprintf+0x53e>
    16ba:	462a      	mov	r2, r5
    16bc:	eba8 0605 	sub.w	r6, r8, r5
    16c0:	e04f      	b.n	1762 <_vsnprintf+0x572>
    16c2:	f04f 0801 	mov.w	r8, #1
    16c6:	210a      	movs	r1, #10
    16c8:	ab16      	add	r3, sp, #88	; 0x58
    16ca:	fbb7 f2f1 	udiv	r2, r7, r1
    16ce:	4443      	add	r3, r8
    16d0:	fb01 7712 	mls	r7, r1, r2, r7
    16d4:	3730      	adds	r7, #48	; 0x30
    16d6:	f1b8 0f20 	cmp.w	r8, #32
    16da:	f803 7c01 	strb.w	r7, [r3, #-1]
    16de:	d0ca      	beq.n	1676 <_vsnprintf+0x486>
    16e0:	f108 0301 	add.w	r3, r8, #1
    16e4:	4617      	mov	r7, r2
    16e6:	b992      	cbnz	r2, 170e <_vsnprintf+0x51e>
    16e8:	aa16      	add	r2, sp, #88	; 0x58
    16ea:	2130      	movs	r1, #48	; 0x30
    16ec:	f1b8 0f20 	cmp.w	r8, #32
    16f0:	d0c1      	beq.n	1676 <_vsnprintf+0x486>
    16f2:	9810      	ldr	r0, [sp, #64]	; 0x40
    16f4:	4580      	cmp	r8, r0
    16f6:	f108 0301 	add.w	r3, r8, #1
    16fa:	d10a      	bne.n	1712 <_vsnprintf+0x522>
    16fc:	9a10      	ldr	r2, [sp, #64]	; 0x40
    16fe:	9310      	str	r3, [sp, #64]	; 0x40
    1700:	a91e      	add	r1, sp, #120	; 0x78
    1702:	440a      	add	r2, r1
    1704:	4611      	mov	r1, r2
    1706:	222e      	movs	r2, #46	; 0x2e
    1708:	f801 2c20 	strb.w	r2, [r1, #-32]
    170c:	e79e      	b.n	164c <_vsnprintf+0x45c>
    170e:	4698      	mov	r8, r3
    1710:	e7da      	b.n	16c8 <_vsnprintf+0x4d8>
    1712:	f808 1002 	strb.w	r1, [r8, r2]
    1716:	4698      	mov	r8, r3
    1718:	e7e8      	b.n	16ec <_vsnprintf+0x4fc>
    171a:	f808 1002 	strb.w	r1, [r8, r2]
    171e:	f108 0801 	add.w	r8, r8, #1
    1722:	980d      	ldr	r0, [sp, #52]	; 0x34
    1724:	4580      	cmp	r8, r0
    1726:	d2ad      	bcs.n	1684 <_vsnprintf+0x494>
    1728:	f1b8 0f1f 	cmp.w	r8, #31
    172c:	d9f5      	bls.n	171a <_vsnprintf+0x52a>
    172e:	2600      	movs	r6, #0
    1730:	e028      	b.n	1784 <_vsnprintf+0x594>
    1732:	bf00      	nop
    1734:	f3af 8000 	nop.w
    1738:	ffc00000 	.word	0xffc00000
    173c:	41dfffff 	.word	0x41dfffff
    1740:	00001ac8 	.word	0x00001ac8
    1744:	3fe00000 	.word	0x3fe00000
    1748:	0720      	lsls	r0, r4, #28
    174a:	d5b4      	bpl.n	16b6 <_vsnprintf+0x4c6>
    174c:	aa1e      	add	r2, sp, #120	; 0x78
    174e:	4442      	add	r2, r8
    1750:	2120      	movs	r1, #32
    1752:	e7ac      	b.n	16ae <_vsnprintf+0x4be>
    1754:	1c57      	adds	r7, r2, #1
    1756:	4653      	mov	r3, sl
    1758:	990b      	ldr	r1, [sp, #44]	; 0x2c
    175a:	9d0c      	ldr	r5, [sp, #48]	; 0x30
    175c:	2020      	movs	r0, #32
    175e:	47a8      	blx	r5
    1760:	463a      	mov	r2, r7
    1762:	990d      	ldr	r1, [sp, #52]	; 0x34
    1764:	18b3      	adds	r3, r6, r2
    1766:	428b      	cmp	r3, r1
    1768:	d3f4      	bcc.n	1754 <_vsnprintf+0x564>
    176a:	4615      	mov	r5, r2
    176c:	e7df      	b.n	172e <_vsnprintf+0x53e>
    176e:	eba8 0006 	sub.w	r0, r8, r6
    1772:	ab16      	add	r3, sp, #88	; 0x58
    1774:	4418      	add	r0, r3
    1776:	990b      	ldr	r1, [sp, #44]	; 0x2c
    1778:	f810 0c01 	ldrb.w	r0, [r0, #-1]
    177c:	9f0c      	ldr	r7, [sp, #48]	; 0x30
    177e:	4653      	mov	r3, sl
    1780:	47b8      	blx	r7
    1782:	3601      	adds	r6, #1
    1784:	45b0      	cmp	r8, r6
    1786:	eb06 0205 	add.w	r2, r6, r5
    178a:	d1f0      	bne.n	176e <_vsnprintf+0x57e>
    178c:	07a1      	lsls	r1, r4, #30
    178e:	d408      	bmi.n	17a2 <_vsnprintf+0x5b2>
    1790:	4615      	mov	r5, r2
    1792:	e53c      	b.n	120e <_vsnprintf+0x1e>
    1794:	1c54      	adds	r4, r2, #1
    1796:	4653      	mov	r3, sl
    1798:	990b      	ldr	r1, [sp, #44]	; 0x2c
    179a:	9d0c      	ldr	r5, [sp, #48]	; 0x30
    179c:	2020      	movs	r0, #32
    179e:	47a8      	blx	r5
    17a0:	4622      	mov	r2, r4
    17a2:	9b0d      	ldr	r3, [sp, #52]	; 0x34
    17a4:	4293      	cmp	r3, r2
    17a6:	d8f5      	bhi.n	1794 <_vsnprintf+0x5a4>
    17a8:	e7f2      	b.n	1790 <_vsnprintf+0x5a0>
    17aa:	2200      	movs	r2, #0
    17ac:	e7f0      	b.n	1790 <_vsnprintf+0x5a0>
    17ae:	f014 0302 	ands.w	r3, r4, #2
    17b2:	930e      	str	r3, [sp, #56]	; 0x38
    17b4:	d025      	beq.n	1802 <_vsnprintf+0x612>
    17b6:	462f      	mov	r7, r5
    17b8:	2601      	movs	r6, #1
    17ba:	4653      	mov	r3, sl
    17bc:	463a      	mov	r2, r7
    17be:	990b      	ldr	r1, [sp, #44]	; 0x2c
    17c0:	f89b 0000 	ldrb.w	r0, [fp]
    17c4:	9c0c      	ldr	r4, [sp, #48]	; 0x30
    17c6:	47a0      	blx	r4
    17c8:	9b0e      	ldr	r3, [sp, #56]	; 0x38
    17ca:	f10b 0804 	add.w	r8, fp, #4
    17ce:	1c7d      	adds	r5, r7, #1
    17d0:	b12b      	cbz	r3, 17de <_vsnprintf+0x5ee>
    17d2:	3e01      	subs	r6, #1
    17d4:	1bf7      	subs	r7, r6, r7
    17d6:	9a0d      	ldr	r2, [sp, #52]	; 0x34
    17d8:	19eb      	adds	r3, r5, r7
    17da:	429a      	cmp	r2, r3
    17dc:	d814      	bhi.n	1808 <_vsnprintf+0x618>
    17de:	46c3      	mov	fp, r8
    17e0:	e515      	b.n	120e <_vsnprintf+0x1e>
    17e2:	4653      	mov	r3, sl
    17e4:	463a      	mov	r2, r7
    17e6:	990b      	ldr	r1, [sp, #44]	; 0x2c
    17e8:	9e0c      	ldr	r6, [sp, #48]	; 0x30
    17ea:	2020      	movs	r0, #32
    17ec:	47b0      	blx	r6
    17ee:	9b0d      	ldr	r3, [sp, #52]	; 0x34
    17f0:	eb05 0708 	add.w	r7, r5, r8
    17f4:	f108 0602 	add.w	r6, r8, #2
    17f8:	f108 0801 	add.w	r8, r8, #1
    17fc:	4543      	cmp	r3, r8
    17fe:	d8f0      	bhi.n	17e2 <_vsnprintf+0x5f2>
    1800:	e7db      	b.n	17ba <_vsnprintf+0x5ca>
    1802:	f8dd 8038 	ldr.w	r8, [sp, #56]	; 0x38
    1806:	e7f2      	b.n	17ee <_vsnprintf+0x5fe>
    1808:	1c6c      	adds	r4, r5, #1
    180a:	462a      	mov	r2, r5
    180c:	4653      	mov	r3, sl
    180e:	9d0c      	ldr	r5, [sp, #48]	; 0x30
    1810:	990b      	ldr	r1, [sp, #44]	; 0x2c
    1812:	2020      	movs	r0, #32
    1814:	47a8      	blx	r5
    1816:	4625      	mov	r5, r4
    1818:	e7dd      	b.n	17d6 <_vsnprintf+0x5e6>
    181a:	4690      	mov	r8, r2
    181c:	e69e      	b.n	155c <_vsnprintf+0x36c>
    181e:	4653      	mov	r3, sl
    1820:	990b      	ldr	r1, [sp, #44]	; 0x2c
    1822:	9c0c      	ldr	r4, [sp, #48]	; 0x30
    1824:	2020      	movs	r0, #32
    1826:	47a0      	blx	r4
    1828:	4643      	mov	r3, r8
    182a:	990d      	ldr	r1, [sp, #52]	; 0x34
    182c:	4299      	cmp	r1, r3
    182e:	eb05 0203 	add.w	r2, r5, r3
    1832:	f103 0801 	add.w	r8, r3, #1
    1836:	d8f2      	bhi.n	181e <_vsnprintf+0x62e>
    1838:	e6a5      	b.n	1586 <_vsnprintf+0x396>
    183a:	4643      	mov	r3, r8
    183c:	1aed      	subs	r5, r5, r3
    183e:	e7f4      	b.n	182a <_vsnprintf+0x63a>
    1840:	461e      	mov	r6, r3
    1842:	4653      	mov	r3, sl
    1844:	e9dd 140b 	ldrd	r1, r4, [sp, #44]	; 0x2c
    1848:	47a0      	blx	r4
    184a:	19ea      	adds	r2, r5, r7
    184c:	f817 0b01 	ldrb.w	r0, [r7], #1
    1850:	b128      	cbz	r0, 185e <_vsnprintf+0x66e>
    1852:	f1bb 0f00 	cmp.w	fp, #0
    1856:	d0f4      	beq.n	1842 <_vsnprintf+0x652>
    1858:	1e73      	subs	r3, r6, #1
    185a:	2e00      	cmp	r6, #0
    185c:	d1f0      	bne.n	1840 <_vsnprintf+0x650>
    185e:	9b0e      	ldr	r3, [sp, #56]	; 0x38
    1860:	4615      	mov	r5, r2
    1862:	b983      	cbnz	r3, 1886 <_vsnprintf+0x696>
    1864:	f8dd b040 	ldr.w	fp, [sp, #64]	; 0x40
    1868:	e4d1      	b.n	120e <_vsnprintf+0x1e>
    186a:	1c6c      	adds	r4, r5, #1
    186c:	462a      	mov	r2, r5
    186e:	4653      	mov	r3, sl
    1870:	9d0c      	ldr	r5, [sp, #48]	; 0x30
    1872:	990b      	ldr	r1, [sp, #44]	; 0x2c
    1874:	2020      	movs	r0, #32
    1876:	47a8      	blx	r5
    1878:	4625      	mov	r5, r4
    187a:	9a0d      	ldr	r2, [sp, #52]	; 0x34
    187c:	eb05 0308 	add.w	r3, r5, r8
    1880:	4293      	cmp	r3, r2
    1882:	d3f2      	bcc.n	186a <_vsnprintf+0x67a>
    1884:	e7ee      	b.n	1864 <_vsnprintf+0x674>
    1886:	eba8 0802 	sub.w	r8, r8, r2
    188a:	e7f6      	b.n	187a <_vsnprintf+0x68a>
    188c:	2308      	movs	r3, #8
    188e:	f044 0421 	orr.w	r4, r4, #33	; 0x21
    1892:	e9cd 6303 	strd	r6, r3, [sp, #12]
    1896:	2210      	movs	r2, #16
    1898:	2300      	movs	r3, #0
    189a:	f10b 0704 	add.w	r7, fp, #4
    189e:	9405      	str	r4, [sp, #20]
    18a0:	e9cd 3201 	strd	r3, r2, [sp, #4]
    18a4:	e69e      	b.n	15e4 <_vsnprintf+0x3f4>
    18a6:	f1b8 0f1f 	cmp.w	r8, #31
    18aa:	f63f af04 	bhi.w	16b6 <_vsnprintf+0x4c6>
    18ae:	0766      	lsls	r6, r4, #29
    18b0:	f57f af4a 	bpl.w	1748 <_vsnprintf+0x558>
    18b4:	aa1e      	add	r2, sp, #120	; 0x78
    18b6:	4442      	add	r2, r8
    18b8:	212b      	movs	r1, #43	; 0x2b
    18ba:	e6f8      	b.n	16ae <_vsnprintf+0x4be>
    18bc:	2869      	cmp	r0, #105	; 0x69
    18be:	f04f 030a 	mov.w	r3, #10
    18c2:	f43f ad66 	beq.w	1392 <_vsnprintf+0x1a2>
    18c6:	2864      	cmp	r0, #100	; 0x64
    18c8:	f43f ad63 	beq.w	1392 <_vsnprintf+0x1a2>
    18cc:	e635      	b.n	153a <_vsnprintf+0x34a>
    18ce:	2310      	movs	r3, #16
    18d0:	f414 7200 	ands.w	r2, r4, #512	; 0x200
    18d4:	f43f ae7c 	beq.w	15d0 <_vsnprintf+0x3e0>
    18d8:	9a0d      	ldr	r2, [sp, #52]	; 0x34
    18da:	9108      	str	r1, [sp, #32]
    18dc:	e9cd 6206 	strd	r6, r2, [sp, #24]
    18e0:	2200      	movs	r2, #0
    18e2:	e9cd 3204 	strd	r3, r2, [sp, #16]
    18e6:	f10b 0b07 	add.w	fp, fp, #7
    18ea:	f02b 0b07 	bic.w	fp, fp, #7
    18ee:	9202      	str	r2, [sp, #8]
    18f0:	f10b 0708 	add.w	r7, fp, #8
    18f4:	e9db 2300 	ldrd	r2, r3, [fp]
    18f8:	e568      	b.n	13cc <_vsnprintf+0x1dc>
    18fa:	bf00      	nop

000018fc <printf>:
    18fc:	b40f      	push	{r0, r1, r2, r3}
    18fe:	b51f      	push	{r0, r1, r2, r3, r4, lr}
    1900:	aa06      	add	r2, sp, #24
    1902:	a902      	add	r1, sp, #8
    1904:	f852 3b04 	ldr.w	r3, [r2], #4
    1908:	9203      	str	r2, [sp, #12]
    190a:	9200      	str	r2, [sp, #0]
    190c:	4804      	ldr	r0, [pc, #16]	; (1920 <printf+0x24>)
    190e:	f04f 32ff 	mov.w	r2, #4294967295	; 0xffffffff
    1912:	f7ff fc6d 	bl	11f0 <_vsnprintf>
    1916:	b005      	add	sp, #20
    1918:	f85d eb04 	ldr.w	lr, [sp], #4
    191c:	b004      	add	sp, #16
    191e:	4770      	bx	lr
    1920:	000011e3 	.word	0x000011e3

00001924 <__FUNCTION__.7505>:
    1924:	63617274 74735f65 006b6361 5d73255b     trace_stack.[%s]
    1934:	48202d20 20647261 6c756166 53202174      - Hard fault! S
    1944:	6b636174 61727420 0d3a6563 255b000a     tack trace:...[%
    1954:	2d205d73 20305220 2578305b 5d583830     s] - R0 [0x%08X]
    1964:	5b000a0d 205d7325 3152202d 78305b20     ...[%s] - R1 [0x
    1974:	58383025 000a0d5d 5d73255b 52202d20     %08X]...[%s] - R
    1984:	305b2032 38302578 0a0d5d58 73255b00     2 [0x%08X]...[%s
    1994:	202d205d 5b203352 30257830 0d5d5838     ] - R3 [0x%08X].
    19a4:	255b000a 2d205d73 32315220 78305b20     ..[%s] - R12 [0x
    19b4:	58383025 000a0d5d 5d73255b 4c202d20     %08X]...[%s] - L
    19c4:	525b2052 205d3431 2578305b 5d583830     R [R14] [0x%08X]
    19d4:	6c616320 6572206c 6e727574 5b000a0d      call return...[
    19e4:	205d7325 4350202d 31525b20 5b205d35     %s] - PC [R15] [
    19f4:	30257830 205d5838 676f7270 206d6172     0x%08X] program 
    1a04:	6e756f63 0d726574 255b000a 2d205d73     counter...[%s] -
    1a14:	52535020 78305b20 58383025 7270205d      PSR [0x%08X] pr
    1a24:	6172676f 7473206d 73757461 67657220     ogram status reg
    1a34:	65747369 000a0d72 5d73255b 43202d20     ister...[%s] - C
    1a44:	20525346 2578305b 5d583830 5b000a0d     FSR [0x%08X]...[
    1a54:	205d7325 4648202d 5b205253 30257830     %s] - HFSR [0x%0
    1a64:	0d5d5838 255b000a 2d205d73 464d4d20     8X]...[%s] - MMF
    1a74:	5b205241 30257830 0d5d5838 255b000a     AR [0x%08X]...[%
    1a84:	2d205d73 41464220 305b2052 38302578     s] - BFAR [0x%08
    1a94:	0a0d5d58 73255b00 202d205d 52534349     X]...[%s] - ICSR
    1aa4:	78305b20 58383025 000a0d5d 5d73255b      [0x%08X]...[%s]
    1ab4:	4d202d20 5b205053 30257830 0d5d5838      - MSP [0x%08X].
    1ac4:	0000000a                                ....

00001ac8 <pow10.5078>:
    1ac8:	00000000 3ff00000 00000000 40240000     .......?......$@
    1ad8:	00000000 40590000 00000000 408f4000     ......Y@.....@.@
    1ae8:	00000000 40c38800 00000000 40f86a00     .......@.....j.@
    1af8:	00000000 412e8480 00000000 416312d0     .......A......cA
    1b08:	00000000 4197d784 00000000 41cdcd65     .......A....e..A
